(dp0
S'loss_record'
p1
(lp2
F0.7687494439427377
aF0.7684704328359528
aF0.7681923101041355
aF0.7679151589143887
aF0.76763896374525
aF0.7673637145905328
aF0.7670894303975889
aF0.7668161291716402
aF0.766543817780142
aF0.7662724950188327
aF0.7660021627903557
aF0.7657328289363999
aF0.7654645021893108
aF0.7651971878375162
aF0.7649308870873923
aF0.7646656001764529
aF0.7644013291092839
aF0.7641380768562192
aF0.763875844900492
aF0.7636146318037358
aF0.763354433965729
aF0.7630952476885934
aF0.7628370701669996
aF0.7625798986697834
aF0.7623237292499858
aF0.7620685564214538
aF0.7618143740992831
aF0.7615611766975143
aF0.7613089591684338
aF0.7610577161886436
aF0.7608074415019911
aF0.7605581281604875
aF0.7603097692760412
aF0.7600623583667867
aF0.7598158889663058
aF0.7595703540736588
aF0.759325746102294
aF0.7590820573413717
aF0.7588392803197019
aF0.7585974076696038
aF0.7583564317480735
aF0.758116344543146
aF0.7578771379554756
aF0.7576388040968803
aF0.7574013352428494
aF0.7571647235922583
aF0.7569289611955512
aF0.7566940401470117
aF0.7564599527864317
aF0.7562266916655457
aF0.755994249384686
aF0.7557626185626075
aF0.7555317919723828
aF0.7553017626536638
aF0.755072523872635
aF0.7548440689996637
aF0.7546163915237541
aF0.7543894851396376
aF0.7541633437988111
aF0.7539379616493476
aF0.7537133329707584
aF0.7534894521965534
aF0.7532663139766835
aF0.7530439131767372
aF0.7528222448173342
aF0.7526013040564064
aF0.7523810862165898
aF0.7521615868057847
aF0.7519428015010464
aF0.7517247261031585
aF0.7515073565438738
aF0.7512906889089319
aF0.7510747194303342
aF0.7508594444665114
aF0.7506448604795132
aF0.7504309640557743
aF0.7502177519063286
aF0.7500052208531989
aF0.7497933678162584
aF0.7495821898104293
aF0.7493716839547567
aF0.7491618474697559
aF0.7489526776560113
aF0.7487441718982718
aF0.7485363276642458
aF0.7483291425104168
aF0.748122614063582
aF0.7479167400211969
aF0.7477115181518207
aF0.7475069462958632
aF0.7473030223582408
aF0.7470997443033235
aF0.746897110153528
aF0.7466951179945169
aF0.7464937659627475
aF0.7462930522488479
aF0.7460929750914195
aF0.7458935327796594
aF0.7456947236473402
aF0.7454965460704961
aF0.7452989984674685
aF0.7451020792951863
aF0.7449057870472202
aF0.7447101202518936
aF0.7445150774682314
aF0.7443206572878074
aF0.7441268583302152
aF0.7439336792403932
aF0.7437411186864252
aF0.7435491753591232
aF0.7433578479691291
aF0.7431671352453314
aF0.7429770359330663
aF0.7427875487891107
aF0.7425986725847772
aF0.7424104061008089
aF0.7422227481259746
aF0.7420356974537088
aF0.741849252886821
aF0.7416634132262739
aF0.7414781772763815
aF0.741293543840163
aF0.7411095117198327
aF0.7409260797126818
aF0.7407432466112628
aF0.7405610112030879
aF0.7403793722651855
aF0.740198328568274
aF0.740017878869384
aF0.7398380219153653
aF0.7396587564424473
aF0.7394800811706117
aF0.7393019948054735
aF0.7391244960354804
aF0.7389475835374169
aF0.7387712559648146
aF0.738595511958279
aF0.738420350136759
aF0.7382457691004702
aF0.7380717674312761
aF0.7378983436906461
aF0.7377254964198011
aF0.7375532241382478
aF0.7373815253473509
aF0.737210398524563
aF0.737039842129764
aF0.736869854600487
aF0.7367004343529336
aF0.736531579783408
aF0.7363632892699039
aF0.7361955611672807
aF0.736028393811267
aF0.7358617855228113
aF0.7356957345976939
aF0.7355302393176543
aF0.735365297944817
aF0.7352009087262636
aF0.7350370698911874
aF0.7348737796509361
aF0.7347110362081724
aF0.7345488377435372
aF0.7343871824290507
aF0.7342260684224439
aF0.7340654938688818
aF0.7339054569031124
aF0.7337459556498998
aF0.733586988222015
aF0.7334285527264701
aF0.7332706472598911
aF0.7331132699140914
aF0.7329564187721014
aF0.732800091913048
aF0.7326442874102352
aF0.7324890033331029
aF0.7323342377504611
aF0.7321799887248748
aF0.7320262543207869
aF0.7318730325988142
aF0.7317203216200867
aF0.7315681194474941
aF0.7314164241424543
aF0.7312652337720202
aF0.7311145464002257
aF0.7309643600983903
aF0.730814672939238
aF0.7306654830006762
aF0.7305167883629772
aF0.7303685871118758
aF0.7302208773400152
aF0.7300736571453174
aF0.7299269246294681
aF0.7297806779033005
aF0.7296349150825941
aF0.7294896342914503
aF0.7293448336622221
aF0.7292005113328763
aF0.7290566654490919
aF0.7289132941676856
aF0.7287703956514118
aF0.7286279680719027
aF0.7284860096101127
aF0.7283445184554582
aF0.7282034928059631
aF0.7280629308713633
aF0.7279228308662242
aF0.7277831910190317
aF0.7276440095642045
aF0.7275052847480922
aF0.7273670148247853
aF0.7272291980581358
aF0.7270918327244005
aF0.7269549171049272
aF0.7268184494951678
aF0.7266824281973239
aF0.7265468515245159
aF0.7264117177984228
aF0.7262770253511306
aF0.7261427725257736
aF0.7260089576732712
aF0.7258755791538708
aF0.7257426353388728
aF0.725610124607124
aF0.7254780453486269
aF0.725346395963126
aF0.7252151748589802
aF0.7250843804524792
aF0.724954011171353
aF0.724824065450253
aF0.7246945417371832
aF0.7245654384840032
aF0.7244367541560386
aF0.7243084872242097
aF0.7241806361700533
aF0.7240531994862901
aF0.7239261756677549
aF0.723799563227747
aF0.7236733606785861
aF0.7235475665480419
aF0.7234221793694152
aF0.7232971976853969
aF0.7231726200464561
aF0.7230484450134625
aF0.7229246711533402
aF0.7228012970436493
aF0.7226783212686325
aF0.7225557424218501
aF0.7224335591034984
aF0.7223117699240815
aF0.7221903735007069
aF0.7220693684598436
aF0.7219487534344422
aF0.7218285270674669
aF0.7217086880066853
aF0.7215892349124754
aF0.7214701664485268
aF0.7213514812881608
aF0.7212331781145174
aF0.7211152556149953
aF0.7209977124861765
aF0.7208805474337541
aF0.7207637591679295
aF0.720647346410354
aF0.7205313078860712
aF0.7204156423323204
aF0.7203003484893423
aF0.720185425106977
aF0.7200708709427922
aF0.7199566847610063
aF0.7198428653317166
aF0.7197294114362405
aF0.7196163218597238
aF0.7195035953945603
aF0.7193912308428327
aF0.719279227011719
aF0.7191675827153028
aF0.7190562967749441
aF0.7189453680209077
aF0.7188347952878312
aF0.718724577418379
aF0.7186147132629451
aF0.7185052016767848
aF0.7183960415229275
aF0.7182872316726494
aF0.7181787710015165
aF0.7180706583932895
aF0.7179628927382069
aF0.71785547293185
aF0.7177483978778864
aF0.7176416664876494
aF0.7175352776739314
aF0.7174292303630768
aF0.7173235234811229
aF0.7172181559662556
aF0.7171131267576685
aF0.7170084348047675
aF0.716904079061892
aF0.7168000584884913
aF0.7166963720524048
aF0.7165930187252301
aF0.7164899974876825
aF0.7163873073229492
aF0.7162849472220636
aF0.7161829161823384
aF0.7160812132054779
aF0.7159798373007347
aF0.715878787480775
aF0.7157780627690229
aF0.7156776621864723
aF0.7155775847673548
aF0.7154778295473065
aF0.7153783955699129
aF0.715279281880987
aF0.7151804875350386
aF0.7150820115890248
aF0.714983853107572
aF0.7148860111594352
aF0.714788484818405
aF0.7146912731626547
aF0.7145943752778384
aF0.7144977902531364
aF0.7144015171796619
aF0.714305555156987
aF0.7142099032906579
aF0.7141145606856117
aF0.7140195264543863
aF0.7139247997172321
aF0.713830379592342
aF0.7137362652053243
aF0.7136424556868519
aF0.7135489501719257
aF0.7134557477966469
aF0.7133628477032493
aF0.71327024903931
aF0.7131779509534865
aF0.7130859525996952
aF0.7129942531340998
aF0.7129028517182803
aF0.7128117475157822
aF0.7127209396940639
aF0.7126304274258928
aF0.7125402098820964
aF0.7124502862415885
aF0.712360655684489
aF0.7122713173934521
aF0.7121822705549629
aF0.7120935143562608
aF0.7120050479899936
aF0.7119168706499387
aF0.7118289815313146
aF0.7117413798342319
aF0.7116540647600047
aF0.711567035510834
aF0.711480291292049
aF0.7113938313137529
aF0.7113076547830337
aF0.7112217609123616
aF0.7111361489152321
aF0.7110508180064669
aF0.7109657674030603
aF0.710880996324559
aF0.7107965039892722
aF0.7107122896203266
aF0.7106283524400563
aF0.7105446916727102
aF0.7104613065445093
aF0.7103781962824947
aF0.7102953601144706
aF0.7102127972698409
aF0.7101305069789565
aF0.7100484884732836
aF0.709966740986019
aF0.7098852637499597
aF0.7098040559989686
aF0.7097231169695901
aF0.7096424458974141
aF0.7095620420188217
aF0.7094819045729217
aF0.7094020327965337
aF0.7093224259287121
aF0.7092430832106087
aF0.7091640038830999
aF0.7090851871860747
aF0.7090066323623252
aF0.7089283386538251
aF0.7088503053045832
aF0.7087725315582011
aF0.708695016658199
aF0.7086177598507657
aF0.708540760381411
aF0.7084640174958271
aF0.7083875304410476
aF0.7083112984651476
aF0.7082353208161518
aF0.7081595967415881
aF0.7080841254921282
aF0.7080089063182543
aF0.7079339384698244
aF0.7078592211978643
aF0.7077847537554299
aF0.7077105353952877
aF0.7076365653704395
aF0.7075628429357106
aF0.707489367346132
aF0.7074161378574921
aF0.7073431537257944
aF0.7072704142096586
aF0.7071979185677745
aF0.7071256660573721
aF0.7070536559409337
aF0.7069818874792282
aF0.7069103599334869
aF0.7068390725672448
aF0.706768024645753
aF0.7066972154322946
aF0.7066266441943143
aF0.706556310198638
aF0.7064862127155892
aF0.7064163510126382
aF0.7063467243619606
aF0.7062773320352271
aF0.7062081733051986
aF0.7061392474478033
aF0.7060705537383261
aF0.7060020914547462
aF0.7059338598749771
aF0.7058658582790647
aF0.7057980859479913
aF0.7057305421659492
aF0.7056632262162438
aF0.7055961373851634
aF0.7055292749600464
aF0.7054626382289735
aF0.705396226483127
aF0.7053300390145028
aF0.7052640751163757
aF0.7051983340844321
aF0.705132815213872
aF0.705067517804719
aF0.7050024411568326
aF0.7049375845718947
aF0.7048729473531364
aF0.7048085288060402
aF0.704744328237288
aF0.7046803449563017
aF0.7046165782724712
aF0.7045530274986113
aF0.7044896919491979
aF0.7044265709396643
aF0.7043636637872019
aF0.704300969811567
aF0.7042384883347664
aF0.7041762186786515
aF0.7041141601686194
aF0.704052312131876
aF0.7039906738960854
aF0.7039292447923853
aF0.7038680241533481
aF0.7038070113126185
aF0.703746205606727
aF0.7036856063733093
aF0.7036252129520433
aF0.703565024684259
aF0.7035050409151753
aF0.7034452609890971
aF0.7033856842524223
aF0.703326310056041
aF0.70326713774969
aF0.7032081666863869
aF0.703149396221889
aF0.7030908257122104
aF0.7030324545160902
aF0.7029742819929236
aF0.7029163075060915
aF0.7028585304182362
aF0.7028009500970424
aF0.7027435659083517
aF0.7026863772235752
aF0.7026293834129099
aF0.7025725838504611
aF0.7025159779090357
aF0.7024595649671117
aF0.7024033444038789
aF0.70234731559872
aF0.702291477933551
aF0.7022358307925946
aF0.7021803735610261
aF0.7021251056280938
aF0.7020700263807061
aF0.7020151352110595
aF0.7019604315104641
aF0.7019059146750499
aF0.7018515840998564
aF0.701797439182363
aF0.7017434793230766
aF0.7016897039212843
aF0.7016361123815619
aF0.7015827041069823
aF0.7015294785040848
aF0.70147643498151
aF0.7014235729473154
aF0.701370891812579
aF0.7013183909899514
aF0.7012660698944747
aF0.7012139279403641
aF0.7011619645452851
aF0.7011101791291485
aF0.7010585711119635
aF0.7010071399145661
aF0.7009558849614511
aF0.7009048056776708
aF0.7008539014890569
aF0.7008031718246638
aF0.7007526161127661
aF0.7007022337854842
aF0.7006520242737817
aF0.7006019870131868
aF0.7005521214385922
aF0.7005024269864085
aF0.7004529030952751
aF0.7004035492043535
aF0.7003543647560756
aF0.7003053491910193
aF0.7002565019544459
aF0.7002078224906494
aF0.7001593102475266
aF0.7001109646714082
aF0.7000627852138346
aF0.7000147713236543
aF0.6999669224533873
aF0.699919238057092
aF0.6998717175886813
aF0.6998243605042547
aF0.6997771662615494
aF0.6997301343194238
aF0.6996832641377156
aF0.6996365551762855
aF0.6995900068993975
aF0.6995436187701289
aF0.6994973902528738
aF0.6994513208147392
aF0.6994054099230922
aF0.6993596570462379
aF0.6993140616547822
aF0.6992686232190505
aF0.6992233412117966
aF0.6991782151072566
aF0.6991332443793199
aF0.6990884285041888
aF0.699043766959527
aF0.6989992592227399
aF0.6989549047747416
aF0.6989107030948014
aF0.6988666536661997
aF0.6988227559711108
aF0.6987790094942354
aF0.6987354137198546
aF0.6986919681352959
aF0.6986486722273837
aF0.6986055254857625
aF0.6985625274005985
aF0.6985196774613257
aF0.6984769751612153
aF0.698434419992417
aF0.6983920114507223
aF0.6983497490300091
aF0.6983076322275509
aF0.6982656605399724
aF0.698223833467156
aF0.6981821505080589
aF0.6981406111629566
aF0.6980992149346831
aF0.698057961325693
aF0.6980168498398263
aF0.6979758799825658
aF0.6979350512585186
aF0.6978943631764599
aF0.6978538152434576
aF0.6978134069692794
aF0.6977731378636691
aF0.6977330074380734
aF0.6976930152043541
aF0.6976531606765277
aF0.6976134433680196
aF0.6975738627947606
aF0.6975344184726401
aF0.6974951099186557
aF0.6974559366519288
aF0.6974168981911404
aF0.6973779940560474
aF0.6973392237692617
aF0.6973005868519678
aF0.697262082827844
aF0.6972237112210582
aF0.6971854715564065
aF0.6971473633604961
aF0.6971093861605886
aF0.6970715394847131
aF0.6970338228608502
aF0.6969962358206151
aF0.6969587778942029
aF0.6969214486127788
aF0.6968842475110242
aF0.6968471741211546
aF0.6968102279787629
aF0.696773408618749
aF0.6967367155793811
aF0.6967001483967191
aF0.6966637066097336
aF0.6966273897580366
aF0.6965911973824312
aF0.6965551290229346
aF0.6965191842227045
aF0.6964833625247949
aF0.6964476634738428
aF0.6964120866134984
aF0.696376631490519
aF0.6963412976515704
aF0.696306084644987
aF0.6962709920183714
aF0.6962360193218642
aF0.6962011661055962
aF0.6961664319209706
aF0.6961318163209981
aF0.6960973188575912
aF0.6960629390850379
aF0.6960286765585353
aF0.6959945308334158
aF0.695960501467112
aF0.6959265880162435
aF0.6958927900401388
aF0.6958591070970139
aF0.6958255387487844
aF0.6957920845547586
aF0.6957587440766384
aF0.6957255168785584
aF0.6956924025233969
aF0.6956594005757026
aF0.6956265106009806
aF0.6955937321648757
aF0.6955610648348817
aF0.6955285081784239
aF0.6954960617654844
aF0.6954637251631702
aF0.6954314979441578
aF0.6953993796786414
aF0.695367369939149
aF0.6953354682985268
aF0.6953036743297311
aF0.6952719876079808
aF0.695240407707848
aF0.695208934206321
aF0.6951775666800811
aF0.6951463047062983
aF0.6951151478650243
aF0.695084095734009
aF0.6950531478940807
aF0.6950223039259033
aF0.6949915634115523
aF0.6949609259341436
aF0.6949303910754934
aF0.6948999584203885
aF0.69486962755397
aF0.6948393980618705
aF0.6948092695298277
aF0.6947792415446138
aF0.6947493136963201
aF0.6947194855711256
aF0.694689756759904
aF0.6946601268521075
aF0.6946305954384142
aF0.6946011621113002
aF0.6945718264618359
aF0.6945425880842929
aF0.6945134465721421
aF0.694484401519705
aF0.6944554525216107
aF0.6944265991744455
aF0.6943978410747795
aF0.6943691778190597
aF0.6943406090068104
aF0.694312134235303
aF0.6942837531042982
aF0.694255465213835
aF0.6942272701651856
aF0.6941991675584103
aF0.6941711569968305
aF0.6941432380820496
aF0.694115410417808
aF0.6940876736083609
aF0.6940600272574287
aF0.6940324709709159
aF0.6940050043544053
aF0.6939776270140132
aF0.693950338557554
aF0.6939231385919588
aF0.6938960267252876
aF0.693869002566667
aF0.6938420657263782
aF0.6938152158135379
aF0.6937884524387885
aF0.693761775213243
aF0.6937351837489998
aF0.6937086776575428
aF0.6936822565524784
aF0.693655920046721
aF0.6936296677544507
aF0.6936034992894706
aF0.6935774142679293
aF0.6935514123041122
aF0.6935254930146957
aF0.6934996560159573
aF0.6934739009244852
aF0.6934482273583203
aF0.6934226349351683
aF0.6933971232736738
aF0.6933716919923447
aF0.6933463407112781
aF0.6933210690491192
aF0.693295876628002
aF0.6932707630673831
aF0.6932457279884011
aF0.6932207710129319
aF0.6931958917630787
aF0.693171089862041
aF0.6931463649309741
aF0.6931217165955003
aF0.6930971444768426
aF0.6930726482009659
aF0.6930482273922379
aF0.6930238816752136
aF0.6929996106747097
aF0.6929754140163633
aF0.6929512913270848
aF0.6929272422336276
aF0.6929032663613437
aF0.6928793633376855
aF0.6928555327901135
aF0.692831774347537
aF0.6928080876374938
aF0.6927844722884599
aF0.6927609279283755
aF0.6927374541873678
aF0.6927140506946319
aF0.6926907170797376
aF0.6926674529733521
aF0.6926442580053609
aF0.692621131805655
aF0.6925980740070603
aF0.6925750842390735
aF0.6925521621346877
aF0.6925293073244451
aF0.6925065194409596
aF0.6924837981171608
aF0.6924611429848149
aF0.6924385536764079
aF0.6924160298275295
aF0.6923935710682841
aF0.692371177034863
aF0.6923488473600035
aF0.692326581678995
aF0.6923043796250414
aF0.6922822408330676
aF0.6922601649381253
aF0.6922381515759726
aF0.6922162003811245
aF0.6921943109889501
aF0.6921724830367332
aF0.6921507161591107
aF0.6921290099931985
aF0.6921073641758074
aF0.6920857783430037
aF0.69206425213172
aF0.6920427851796772
aF0.6920213771244387
aF0.6920000276035367
aF0.6919787362540906
aF0.6919575027167331
aF0.6919363266266698
aF0.6919152076246371
aF0.6918941453494518
aF0.6918731394398163
aF0.6918521895350366
aF0.6918312952759312
aF0.6918104563010505
aF0.6917896722507478
aF0.6917689427676296
aF0.6917482674908805
aF0.6917276460615358
aF0.6917070781224552
aF0.6916865633144537
aF0.6916661012806294
aF0.6916456916631654
aF0.6916253341057805
aF0.6916050282518164
aF0.6915847737459291
aF0.6915645702320876
aF0.6915444173552286
aF0.6915243147624259
aF0.6915042620994735
aF0.6914842590134237
aF0.691464305152879
aF0.6914444001660268
aF0.6914245437023688
aF0.6914047354120164
aF0.6913849749479868
aF0.6913652619615233
aF0.6913455961071611
aF0.6913259770397467
aF0.6913064044159057
aF0.6912868778929061
aF0.6912673971314153
aF0.6912479617915545
aF0.6912285715366882
aF0.6912092260315653
aF0.6911899249442712
aF0.691170667941795
aF0.691151454698009
aF0.6911322848862895
aF0.6911131581831395
aF0.6910940742691868
aF0.691075032827084
aF0.6910560335432421
aF0.6910370761081857
aF0.6910181602136877
aF0.6909992855582616
aF0.6909804518446192
aF0.6909616587778562
aF0.6909429060684714
aF0.6909241934328774
aF0.6909055205909927
aF0.690886887270284
aF0.6908682932038633
aF0.6908497381275722
aF0.6908312217868641
aF0.6908127439338667
aF0.6907943043248099
aF0.6907759027270624
aF0.6907575389117255
aF0.690739212661157
aF0.6907209237624048
aF0.6907026720148313
aF0.6906844572240957
aF0.6906662792063708
aF0.6906481377863051
aF0.6906300327999435
aF0.6906119640930045
aF0.6905939315224553
aF0.6905759349538361
aF0.6905579742684649
aF0.6905400493566785
aF0.6905221601215892
aF0.6905043064798104
aF0.6904864883605273
aF0.6904687057050889
aF0.6904509584715626
aF0.690433246630978
aF0.6904155701670636
aF0.690397929081973
aF0.6903803233912396
aF0.6903627531273369
aF0.6903452183373167
aF0.6903277190854015
aF0.6903102554527013
aF0.690292827537013
aF0.6902754354528138
aF0.6902580793323927
aF0.69024075932528
aF0.6902234755971197
aF0.6902062283332551
aF0.6901890177343611
aF0.6901718440187786
aF0.6901547074216232
aF0.6901376081949142
aF0.6901205466069966
aF0.6901035229409345
aF0.6900865374960423
aF0.6900695905857838
aF0.6900526825366051
aF0.690035813688793
aF0.6900189843951153
aF0.6900021950179827
aF0.6899854459299839
aF0.6899687375138011
aF0.6899520701582464
aF0.6899354442601391
aF0.6899188602183741
aF0.6899023184375005
aF0.6898858193245666
aF0.6898693632863517
aF0.6898529507281553
aF0.6898365820547893
aF0.6898202576652268
aF0.6898039779543721
aF0.6897877433110562
aF0.689771554113835
aF0.689755410733851
aF0.6897393135290478
aF0.6897232628473495
aF0.6897072590235778
aF0.6896913023758826
aF0.6896753932078294
aF0.6896595318067522
aF0.6896437184433974
aF0.6896279533683337
aF0.6896122368147652
aF0.68959656899726
aF0.6895809501083585
aF0.689565380321363
aF0.689549859790181
aF0.6895343886465961
aF0.6895189670031494
aF0.6895035949507133
aF0.6894882725596235
aF0.6894729998804647
aF0.6894577769440081
aF0.6894426037613189
aF0.6894274803245781
aF0.6894124066074715
aF0.6893973825640072
aF0.689382408133493
aF0.6893674832379635
aF0.6893526077825008
aF0.6893377816573297
aF0.6893230047403122
aF0.6893082768928867
aF0.6892935979662932
aF0.6892789677978962
aF0.6892643862153404
aF0.6892498530349156
aF0.6892353680650912
aF0.6892209311038081
aF0.6892065419416611
aF0.6891922003621896
aF0.6891779061430882
aF0.6891636590544248
aF0.6891494588622595
aF0.6891353053271322
aF0.6891211982062704
aF0.689107137252387
aF0.689093122216261
aF0.6890791528437106
aF0.6890652288814982
aF0.6890513500712327
aF0.6890375161554341
aF0.6890237268754293
aF0.6890099819681096
aF0.6889962811751269
aF0.6889826242327276
aF0.6889690108819565
aF0.6889554408599684
aF0.6889419139057058
aF0.6889284297592534
aF0.6889149881600384
aF0.6889015888497401
aF0.6888882315703461
aF0.6888749160643044
aF0.6888616420761711
aF0.6888484093507738
aF0.6888352176359971
aF0.6888220666806086
aF0.688808956233909
aF0.6887958860485097
aF0.6887828558766875
aF0.6887698654739236
aF0.6887569145980599
aF0.6887440030072072
aF0.6887311304623256
aF0.6887182967262033
aF0.6887055015646224
aF0.68869274474246
aF0.688680026029002
aF0.6886673451959723
aF0.6886547020151572
aF0.6886420962624591
aF0.6886295277140708
aF0.6886169961499977
aF0.6886045013502416
aF0.6885920430994302
aF0.6885796211815605
aF0.6885672353853357
aF0.6885548854998362
aF0.6885425713180051
aF0.6885302926319872
aF0.6885180492392695
aF0.6885058409369585
aF0.6884936675254468
aF0.6884815288073084
aF0.6884694245869373
aF0.6884573546690488
aF0.6884453188645264
aF0.6884333169813963
aF0.6884213488341053
aF0.6884094142362318
aF0.6883975130030947
aF0.6883856449549024
aF0.6883738099101077
aF0.688362007692503
aF0.6883502381252402
aF0.688338501033016
aF0.688326796246403
aF0.6883151235930811
aF0.6883034829040473
aF0.6882918740145084
aF0.6882802967570744
aF0.6882687509697879
aF0.6882572364907158
aF0.6882457531596694
aF0.6882343008180984
aF0.6882228793105759
aF0.6882114884804956
aF0.6882001281755026
aF0.6881887982420813
aF0.6881774985311122
aF0.6881662288936315
aF0.6881549891810421
aF0.6881437792477761
aF0.6881325989501081
aF0.688121448143443
aF0.6881103266863935
aF0.6880992344381369
aF0.6880881712601111
aF0.6880771370133637
aF0.6880661315622285
aF0.6880551547699161
aF0.6880442065032704
aF0.688033286628594
aF0.6880223950138197
aF0.6880115315280129
aF0.6880006960419811
aF0.687989888426559
aF0.6879791085542702
aF0.6879683562985365
aF0.6879576315339523
aF0.6879469341352538
aF0.6879362639797089
aF0.6879256209434853
aF0.6879150049059872
aF0.6879044157461489
aF0.6878938533436753
aF0.6878833175789097
aF0.6878728083351995
aF0.6878623254929289
aF0.6878518689363583
aF0.6878414385499761
aF0.6878310342181972
aF0.6878206558270897
aF0.6878103032621065
aF0.6877999764109678
aF0.6877896751612929
aF0.6877793994012155
aF0.6877691490198933
aF0.6877589239067602
aF0.687748723952685
aF0.687738549048696
aF0.6877283990851273
aF0.6877182739551643
aF0.6877081735511823
aF0.6876980977657172
aF0.6876880464941602
aF0.6876780196291513
aF0.6876680170659097
aF0.6876580387010034
aF0.6876480844284206
aF0.6876381541456811
aF0.6876282477481789
aF0.6876183651350845
aF0.6876085062028073
aF0.6875986708494527
aF0.68758885897352
aF0.6875790704746851
aF0.6875693052516165
aF0.6875595632047766
aF0.6875498442326556
aF0.6875401482387157
aF0.6875304751207642
aF0.6875208247822557
aF0.6875111971240688
aF0.6875015920478094
aF0.687492009457364
aF0.6874824492526797
aF0.6874729113398063
aF0.6874633956209175
aF0.687453901999369
aF0.6874444303793809
aF0.6874349806661757
aF0.6874255527623514
aF0.6874161465744385
aF0.6874067620078573
aF0.6873973989675457
aF0.6873880573596634
aF0.6873787370895924
aF0.6873694380642043
aF0.6873601601903381
aF0.687350903375479
aF0.6873416675255942
aF0.68733245254817
aF0.6873232583527116
aF0.6873140848444859
aF0.687304931933847
aF0.6872957995283598
aF0.6872866875376749
aF0.6872775958697364
aF0.6872685244343135
aF0.687259473140031
aF0.6872504418979107
aF0.6872414306168549
aF0.6872324392078486
aF0.6872234675802329
aF0.6872145156453764
aF0.6872055833139709
aF0.6871966704970852
aF0.6871877771057346
aF0.6871789030518777
aF0.687170048246968
aF0.687161212602739
aF0.6871523960318539
aF0.6871435984459309
aF0.6871348197581632
aF0.6871260598810839
aF0.6871173187273165
aF0.68710859621032
aF0.687099892243888
aF0.6870912067420092
aF0.6870825396168934
aF0.6870738907831145
aF0.6870652601551062
aF0.6870566476478089
aF0.6870480531748673
aF0.687039476651585
aF0.6870309179925884
aF0.6870223771142051
aF0.6870138539302454
aF0.6870053483571885
aF0.6869968603101522
aF0.6869883897061323
aF0.6869799364607055
aF0.6869715004897117
aF0.6869630817109474
aF0.6869546800401296
aF0.6869462953946324
aF0.6869379276918607
aF0.686929576848897
aF0.686921242783844
aF0.686912925413693
aF0.6869046246564687
aF0.6868963404310936
aF0.6868880726550474
aF0.6868798212483045
aF0.6868715861285279
aF0.6868633672148174
aF0.6868551644272906
aF0.6868469776848174
aF0.6868388069064812
aF0.6868306520128721
aF0.6868225129241864
aF0.6868143895611342
aF0.6868062818439677
aF0.6867981896934554
aF0.6867901130309425
aF0.6867820517773188
aF0.6867740058549912
aF0.6867659751853694
aF0.6867579596897551
aF0.6867499592913615
aF0.6867419739136906
aF0.6867340034783628
aF0.6867260479088129
aF0.686718107128755
aF0.6867101810614968
aF0.6867022696322513
aF0.6866943727639908
aF0.6866864903821462
aF0.6866786224121239
aF0.6866707687778326
aF0.6866629294064597
aF0.6866551042231037
aF0.6866472931544055
aF0.6866394961266594
aF0.6866317130679018
aF0.6866239439041391
aF0.6866161885645048
aF0.6866084469757769
aF0.6866007190680469
aF0.6865930047688943
aF0.6865853040083582
aF0.686577616716308
aF0.6865699428232528
aF0.6865622822586299
aF0.6865546349542452
aF0.6865470008415706
aF0.6865393798531411
aF0.686531771921102
aF0.6865241769785042
aF0.686516594957989
aF0.6865090257948878
aF0.6865014694227671
aF0.6864939257765424
aF0.6864863947929704
aF0.6864788764073497
aF0.6864713705560568
aF0.6864638771764713
aF0.6864563962072386
aF0.6864489275863352
aF0.6864414712520743
aF0.6864340271451533
aF0.6864265952053386
aF0.6864191753733876
aF0.6864117675915298
aF0.6864043718009445
aF0.6863969879451307
aF0.6863896159686159
aF0.6863822558142129
aF0.6863749074271233
aF0.686367570753539
aF0.6863602457389983
aF0.6863529323316854
aF0.6863456304790054
aF0.6863383401301658
aF0.6863310612331686
aF0.6863237937397748
aF0.6863165376004507
aF0.6863092927664305
aF0.6863020591909783
aF0.6862948368272025
aF0.6862876256292678
aF0.6862804255525538
aF0.6862732365524626
aF0.6862660585861377
aF0.6862588916107265
aF0.6862517355857995
aF0.6862445904691746
aF0.6862374562214908
aF0.6862303328050442
aF0.6862232201809133
aF0.6862161183112443
aF0.6862090271611961
aF0.6862019466954828
aF0.6861948768790042
aF0.6861878176786191
aF0.6861807690612067
aF0.6861737309961435
aF0.6861667034522666
aF0.6861596863998507
aF0.6861526798106882
aF0.6861456836566701
aF0.6861386979100286
aF0.6861317225457785
aF0.6861247575397966
aF0.6861178028663144
aF0.6861108585029433
aF0.6861039244277011
aF0.686097000618797
aF0.6860900870570588
aF0.6860831837222209
aF0.6860762905971631
aF0.6860694076625627
aF0.6860625349034679
aF0.6860556723040435
aF0.6860488198491399
aF0.6860419775261783
aF0.6860351453215778
aF0.686028323223867
aF0.6860215112215291
aF0.6860147093051857
aF0.6860079174659302
aF0.6860011356950536
aF0.685994363985475
aF0.6859876023307704
aF0.6859808507250558
aF0.6859741091646423
aF0.685967377644778
aF0.6859606561626175
aF0.6859539447163066
aF0.6859472433045214
aF0.6859405519269357
aF0.6859338705836279
aF0.6859271992760146
aF0.6859205380058013
aF0.685913886775801
aF0.6859072455895472
aF0.6859006144516561
aF0.6858939933661112
aF0.6858873823395161
aF0.6858807813784416
aF0.6858741904895529
aF0.6858676096818719
aF0.685861038962204
aF0.685854478340985
aF0.6858479278279508
aF0.6858413874343047
aF0.6858348571699865
aF0.6858283370470997
aF0.6858218270790972
aF0.6858153272780081
aF0.685808837657937
aF0.6858023582333284
aF0.6857958890182921
aF0.6857894300280342
aF0.6857829812791185
aF0.6857765427876216
aF0.6857701145703884
aF0.685763696644719
aF0.6857572890275287
aF0.6857508917386184
aF0.68574450479597
aF0.6857381282182138
aF0.6857317620252241
aF0.6857254062377283
aF0.6857190608754173
aF0.6857127259582899
aF0.6857064015085581
aF0.6857000875469492
aF0.6856937840957358
aF0.6856874911764684
aF0.6856812088108956
aF0.6856749370229285
aF0.6856686758347508
aF0.6856624252694974
aF0.6856561853515959
aF0.685649956103045
aF0.6856437375485152
aF0.6856375297121993
aF0.6856313326178392
aF0.6856251462906738
aF0.685618970754138
aF0.6856128060337543
aF0.6856066521539217
aF0.685600509140771
aF0.6855943770176982
aF0.685588255810017
aF0.6855821455445432
aF0.6855760462453672
aF0.6855699579377896
aF0.6855638806478231
aF0.685557814400241
aF0.6855517592205045
aF0.6855457151340898
aF0.6855396821671798
aF0.6855336603439339
aF0.6855276496911336
aF0.6855216502327008
aF0.6855156619943481
aF0.685509685001592
aF0.6855037192780673
aF0.6854977648496694
aF0.6854918217421462
aF0.6854858899782981
aF0.6854799695836944
aF0.685474060583123
aF0.6854681629993387
aF0.6854622768575248
aF0.6854564021808446
aF0.6854505389931574
aF0.6854446873181436
aF0.6854388471781968
aF0.6854330185962605
aF0.6854272015952927
aF0.6854213961976823
aF0.6854156024259319
aF0.6854098203005475
aF0.6854040498437962
aF0.6853982910766517
aF0.685392544020173
aF0.6853868086944115
aF0.6853810851195178
aF0.6853753733152673
aF0.6853696733014695
aF0.6853639850960513
aF0.6853583087184045
aF0.6853526441861195
aF0.6853469915182467
aF0.6853413507299605
aF0.6853357218393915
aF0.6853301048624255
aF0.685324499816064
aF0.685318906714603
aF0.6853133255730025
aF0.6853077564058965
aF0.6853021992279917
aF0.6852966540516764
aF0.6852911208905438
aF0.6852855997561729
aF0.6852800906613781
aF0.6852745936160779
aF0.6852691086324331
aF0.6852636357199613
aF0.6852581748881968
aF0.685252726145666
aF0.685247289500872
aF0.6852418649627399
aF0.6852364525365509
aF0.6852310522306866
aF0.6852256640502107
aF0.6852202879994413
aF0.6852149240849316
aF0.6852095723091627
aF0.68520423267606
aF0.6851989051877968
aF0.685193589847071
aF0.6851882866552718
aF0.6851829956121529
aF0.6851777167187608
aF0.6851724499738434
aF0.6851671953758285
aF0.685161952923045
aF0.6851567226130968
aF0.6851515044417249
aF0.6851462984056909
aF0.6851411044989266
aF0.6851359227169114
aF0.6851307530529063
aF0.6851255954996592
aF0.685120450050003
aF0.6851153166956112
aF0.6851101954269162
aF0.6851050862340601
aF0.6850999891074505
aF0.6850949040344811
aF0.6850898310041826
aF0.6850847700035886
aF0.6850797210188428
aF0.6850746840367586
aF0.6850696590409772
aF0.6850646460183522
aF0.6850596449509414
aF0.685054655821987
aF0.685049678613783
aF0.6850447133084326
aF0.6850397598869749
aF0.6850348183298691
aF0.6850298886162423
aF0.6850249707246908
aF0.685020064634817
aF0.6850151703227919
aF0.6850102877661863
aF0.6850054169420161
aF0.6850005578238767
aF0.6849957103887493
aF0.6849908746102331
aF0.6849860504611783
aF0.6849812379153958
aF0.6849764369463827
aF0.6849716475240774
aF0.684966869621038
aF0.6849621032074829
aF0.6849573482530422
aF0.6849526047273059
aF0.6849478725997507
aF0.6849431518376964
aF0.684938442409404
aF0.6849337442827548
aF0.6849290574228112
aF0.6849243817974227
aF0.684919717370817
aF0.6849150641090629
aF0.6849104219762314
aF0.6849057909370637
aF0.6849011709547768
aF0.6848965619920931
aF0.6848919640124955
aF0.6848873769774496
aF0.6848828008493716
aF0.6848782355898415
aF0.684873681159323
aF0.6848691375182424
aF0.684864604628059
aF0.684860082447247
aF0.6848555709352857
aF0.6848510700521042
aF0.6848465797561774
aF0.6848421000052926
aF0.6848376307582208
aF0.6848331719724844
aF0.6848287236054336
aF0.6848242856151507
aF0.6848198579576052
aF0.6848154405898372
aF0.684811033466895
aF0.6848066365471972
aF0.6848022497851265
aF0.6847978731372553
aF0.6847935065587084
aF0.6847891500049068
aF0.684784803430729
aF0.684780466791557
aF0.6847761400414679
aF0.684771823136186
aF0.6847675160298431
aF0.6847632186768416
aF0.6847589310312397
aF0.6847546530472352
aF0.6847503846795533
aF0.6847461258812388
aF0.6847418766072597
aF0.6847376368111243
aF0.684733406446688
aF0.6847291854681579
aF0.6847249738293901
aF0.6847207714830272
aF0.6847165783843092
aF0.6847123944866714
aF0.684708219743421
aF0.6847040541089315
aF0.6846998975372719
aF0.6846957499825237
aF0.6846916113979986
aF0.6846874817387256
aF0.6846833609583586
aF0.6846792490110364
aF0.6846751458514627
aF0.6846710514335814
aF0.6846669657134781
aF0.6846628886436396
aF0.6846588201812153
aF0.6846547602788579
aF0.6846507088941228
aF0.6846466659809858
aF0.6846426314948129
aF0.6846386053920716
aF0.6846345876281102
aF0.6846305781587956
aF0.6846265769400288
aF0.6846225839295571
aF0.6846185990826175
aF0.6846146223564407
aF0.6846106537089585
aF0.6846066930964841
aF0.6846027404763012
aF0.6845987958073725
aF0.6845948590469163
aF0.6845909301535139
aF0.6845870090852417
aF0.6845830958014061
aF0.6845791902611857
aF0.6845752924233597
aF0.6845714022473361
aF0.6845675196935975
aF0.6845636447223745
aF0.6845597772933083
aF0.6845559173684423
aF0.6845520649080432
aF0.684548219873059
aF0.6845443822265537
aF0.6845405519292724
aF0.6845367289425145
aF0.6845329132315874
aF0.6845291047577216
aF0.6845253034841928
aF0.6845215093752169
aF0.6845177223932506
aF0.684513942504301
aF0.6845101696712923
aF0.6845064038601432
aF0.6845026450355215
aF0.6844988931631211
aF0.6844951482086966
aF0.6844914101390595
aF0.6844876789192562
aF0.6844839545169352
aF0.6844802368997562
aF0.6844765260354586
aF0.6844728218901783
aF0.6844691244343599
aF0.684465433634173
aF0.6844617494599845
aF0.6844580718814925
aF0.6844544008673233
aF0.6844507363870018
aF0.684447078411376
aF0.6844434269115033
aF0.6844397818574881
aF0.6844361432208782
aF0.6844325109734797
aF0.6844288850856024
aF0.6844252655313058
aF0.6844216522835661
aF0.684418045313051
aF0.6844144445950657
aF0.6844108501021641
aF0.6844072618089001
aF0.6844036796880222
aF0.6844001037155426
aF0.6843965338666027
aF0.684392970114429
aF0.684389412436335
aF0.6843858608078466
aF0.6843823152042476
aF0.6843787756023625
aF0.6843752419793473
aF0.6843717143121781
aF0.6843681925773962
aF0.684364676753655
aF0.6843611668181634
aF0.6843576627502361
aF0.6843541645269824
aF0.6843506721278003
aF0.6843471855328488
aF0.6843437047199794
aF0.6843402296697922
aF0.6843367603622251
aF0.6843332967778276
aF0.6843298388965223
aF0.6843263866990058
aF0.6843229401664841
aF0.6843194992805179
aF0.6843160640232991
aF0.6843126343760932
aF0.6843092103210674
aF0.6843057918403307
aF0.6843023789168539
aF0.6842989715338319
aF0.6842955696742508
aF0.6842921733206146
aF0.6842887824580173
aF0.6842853970693323
aF0.6842820171389046
aF0.6842786426515245
aF0.6842752735909776
aF0.6842719099424797
aF0.6842685516902249
aF0.6842651988213413
aF0.6842618513195449
aF0.6842585091709885
aF0.6842551723616862
aF0.6842518408776372
aF0.6842485147046542
aF0.6842451938302543
aF0.6842418782404843
aF0.6842385679216001
aF0.6842352628615859
aF0.6842319630480433
aF0.6842286684666741
aF0.6842253791063388
aF0.6842220949541493
aF0.6842188159990583
aF0.6842155422289401
aF0.6842122736314256
aF0.6842090101953267
aF0.68420575190881
aF0.684202498760981
aF0.6841992507413505
aF0.6841960078384544
aF0.6841927700408575
aF0.6841895373389848
aF0.6841863097221597
aF0.6841830871801912
aF0.6841798697018032
aF0.6841766572781954
aF0.6841734498990987
aF0.6841702475541923
aF0.684167050234009
aF0.6841638579293354
aF0.6841606706306741
aF0.6841574883284002
aF0.6841543110137078
aF0.68415113867686
aF0.6841479713092993
aF0.684144808902331
aF0.6841416514474076
aF0.6841384989342669
aF0.6841353513560733
aF0.6841322087033064
aF0.6841290709682564
aF0.6841259381425797
aF0.6841228102176147
aF0.6841196871859265
aF0.6841165690383688
aF0.6841134557685071
aF0.684110347366834
aF0.684107243826333
aF0.6841041451393403
aF0.6841010512981063
aF0.6840979622942462
aF0.684094878121712
aF0.6840917987724907
aF0.6840887242386756
aF0.6840856545132261
aF0.6840825895889179
aF0.6840795294581057
aF0.6840764741142813
aF0.6840734235494317
aF0.6840703777575331
aF0.6840673367311056
aF0.6840643004625502
aF0.6840612689456964
aF0.6840582421729684
aF0.684055220138403
aF0.684052202833941
aF0.6840491902537559
aF0.6840461823908642
aF0.6840431792377666
aF0.6840401807887583
aF0.6840371870370282
aF0.6840341979755399
aF0.6840312135975055
aF0.6840282338963439
aF0.684025258866065
aF0.6840222884989283
aF0.684019322789764
aF0.684016361731088
aF0.6840134053161313
aF0.6840104535398307
aF0.6840075063935991
aF0.684004563872616
aF0.6840016259689073
aF0.6839986926770438
aF0.683995763990574
aF0.6839928399021216
aF0.6839899204054862
aF0.6839870054954297
aF0.6839840951631114
aF0.6839811894042686
aF0.6839782882114808
aF0.6839753915773342
aF0.6839724994965037
aF0.6839696119620025
aF0.6839667289672811
aF0.6839638505057166
aF0.6839609765705846
aF0.6839581071562881
aF0.6839552422547606
aF0.6839523818603604
aF0.6839495259663804
aF0.6839466745656064
aF0.6839438276520728
aF0.6839409852182904
aF0.6839381472584128
aF0.6839353137650157
aF0.6839324847316703
aF0.6839296601516821
aF0.6839268400184236
aF0.6839240243237334
aF0.6839212130628846
aF0.6839184062268442
aF0.6839156038105982
aF0.6839128058057956
aF0.6839100122056995
aF0.6839072230042953
aF0.6839044381935248
aF0.6839016577666224
aF0.683898881716644
aF0.683896110036087
aF0.683893342718437
aF0.6838905797556702
aF0.6838878211412178
aF0.6838850668670753
aF0.6838823169273195
aF0.6838795713130974
aF0.6838768300176552
aF0.6838740930334284
aF0.6838713603536134
aF0.683868631970078
aF0.6838659078756193
aF0.6838631880624438
aF0.6838604725226574
aF0.6838577612494966
aF0.6838550542343438
aF0.6838523514695103
aF0.6838496529482747
aF0.6838469586618119
aF0.6838442686027012
aF0.6838415827629649
aF0.6838389011351257
aF0.683836223710513
aF0.6838335504813609
aF0.6838308814397226
aF0.6838282165771036
aF0.6838255558865434
aF0.6838228993580966
aF0.6838202469847665
aF0.6838175987585784
aF0.6838149546703225
aF0.6838123147118943
aF0.6838096788753643
aF0.6838070471521531
aF0.6838044195327522
aF0.6838017960102014
aF0.6837991765750158
aF0.6837965612189538
aF0.6837939499331543
aF0.6837913427092136
aF0.6837887395380096
aF0.6837861404114248
aF0.6837835453200641
aF0.6837809542554878
aF0.6837783672085168
aF0.6837757841709593
aF0.6837732051322419
aF0.6837706300853371
aF0.6837680590193909
aF0.6837654919268559
aF0.6837629287976434
aF0.6837603696235037
aF0.6837578143934339
aF0.6837552631010833
aF0.6837527157344376
aF0.6837501722854856
aF0.6837476327444686
aF0.6837450971027403
aF0.6837425653500572
aF0.6837400374776778
aF0.6837375134756816
aF0.6837349933346614
aF0.6837324770445325
aF0.6837299645968786
aF0.6837274559803193
aF0.6837249511873912
aF0.6837224502068101
aF0.683719953029917
aF0.6837174596458843
aF0.683714970045341
aF0.6837124842188251
aF0.6837100021566453
aF0.6837075238483246
aF0.6837050492835918
aF0.6837025784541061
aF0.6837001113488821
aF0.6836976479574088
aF0.6836951882703414
aF0.6836927322780124
aF0.6836902799698802
aF0.6836878313357461
aF0.6836853863664045
aF0.6836829450504303
aF0.6836805073784926
aF0.6836780733398806
aF0.6836756429249055
aF0.6836732161233583
aF0.6836707929254688
aF0.6836683733192479
aF0.683665957296361
aF0.6836635448452816
aF0.6836611359564302
aF0.6836587306190264
aF0.6836563288227596
aF0.6836539305578284
aF0.6836515358137226
aF0.6836491445793977
aF0.6836467568445815
aF0.6836443725996034
aF0.683641991833998
aF0.6836396145368463
aF0.6836372406973483
aF0.683634870305916
aF0.6836325033516951
aF0.6836301398250446
aF0.6836277797136243
aF0.6836254230085477
aF0.6836230696987903
aF0.6836207197739004
aF0.68361837322338
aF0.6836160300370772
aF0.6836136902039474
aF0.6836113537143363
aF0.6836090205570476
aF0.6836066907209895
aF0.683604364197019
aF0.6836020409742097
aF0.6835997210409153
aF0.6835974043884777
aF0.6835950910052617
aF0.6835927808812058
aF0.6835904740053569
aF0.6835881703676059
aF0.6835858699578589
aF0.6835835727646566
aF0.6835812787787894
aF0.6835789879888587
aF0.6835767003847065
aF0.6835744159556522
aF0.6835721346919745
aF0.6835698565826261
aF0.6835675816173394
aF0.6835653097855007
aF0.6835630410783832
aF0.6835607754832483
aF0.6835585129906935
aF0.6835562535913419
aF0.683553997273572
aF0.6835517440283876
aF0.6835494938453495
aF0.6835472467154269
aF0.6835450026313067
aF0.6835427615894798
aF0.6835405235928675
aF0.6835382886546155
aF0.6835360567881155
aF0.6835338279303439
aF0.6835316018605953
aF0.6835293784708799
aF0.6835271581370508
aF0.6835249411086675
aF0.6835227270166678
aF0.6835205155480215
aF0.6835183070190489
aF0.6835161016646174
aF0.6835138991404269
aF0.6835116993079693
aF0.6835095024834889
aF0.683507308647641
aF0.6835051175226609
aF0.6835029292230499
aF0.6835007439103162
aF0.6834985613938075
aF0.6834963816377766
aF0.6834942048337367
aF0.6834920309602828
aF0.6834898599555894
aF0.6834876918820393
aF0.6834855264062588
aF0.683483362929864
aF0.68348120182512
aF0.6834790441748456
aF0.6834768899242303
aF0.6834747380514085
aF0.6834725882518576
aF0.6834704413736664
aF0.683468297766491
aF0.6834661566788153
aF0.6834640178039463
aF0.6834618818067416
aF0.683459748837754
aF0.6834576182799789
aF0.6834554901212162
aF0.6834533648712063
aF0.6834512423748895
aF0.683449122232783
aF0.6834470046853481
aF0.6834448899626848
aF0.6834427777628831
aF0.6834406679895595
aF0.6834385609071221
aF0.6834364564731341
aF0.683434354470049
aF0.6834322549972208
aF0.6834301581767581
aF0.6834280638549723
aF0.6834259719809871
aF0.683423882677024
aF0.6834217959187583
aF0.6834197115975054
aF0.6834176297588366
aF0.683415550455619
aF0.6834134736092267
aF0.6834113991918634
aF0.6834093272591615
aF0.6834072577946131
aF0.683405190740981
aF0.6834031261190114
aF0.6834010639469132
aF0.6833990041843785
aF0.6833969468158101
aF0.6833948918619874
aF0.6833928393114518
aF0.6833907891341247
aF0.6833887413347937
aF0.6833866959185839
aF0.6833846528640142
aF0.683382612158479
aF0.6833805738078513
aF0.6833785378041624
aF0.6833765041288294
aF0.6833744727800843
aF0.6833724437579531
aF0.6833704170477415
aF0.6833683926403491
aF0.6833663705335644
aF0.6833643507228789
aF0.6833623331955272
aF0.6833603179435409
aF0.6833583049672013
aF0.6833562942552585
aF0.6833542857998018
aF0.6833522795967315
aF0.6833502756394275
aF0.6833482739200898
aF0.6833462744321974
aF0.6833442771699612
aF0.6833422821268825
aF0.6833402892964193
aF0.6833382986697712
aF0.6833363102456056
aF0.6833343240150513
aF0.683332339971159
aF0.683330358108709
aF0.6833283784218411
aF0.683326400903099
aF0.6833244255495586
aF0.6833224523517984
aF0.6833204813055818
aF0.6833185124057113
aF0.683316545645397
aF0.6833145810195932
aF0.6833126185216619
aF0.6833106581462607
aF0.6833086998890124
aF0.683306743742988
aF0.6833047897023261
aF0.683302837763996
aF0.6833008879197046
aF0.683298940166711
aF0.6832969944977172
aF0.6832950509080833
aF0.6832931093938848
aF0.6832911699474827
aF0.6832892325655784
aF0.6832872972425029
aF0.6832853639740616
aF0.6832834327547581
aF0.6832815035796462
aF0.6832795764433932
aF0.6832776513422225
aF0.6832757282703679
aF0.6832738072236708
aF0.6832718881971377
aF0.6832699711876005
aF0.6832680561882818
aF0.6832661431964214
aF0.683264232206292
aF0.6832623232149032
aF0.6832604162163735
aF0.6832585112069678
aF0.6832566081829567
aF0.6832547071388869
aF0.6832528080718895
aF0.6832509109775822
aF0.6832490158505793
aF0.6832471226882598
aF0.6832452314863782
aF0.6832433422411475
aF0.6832414549471331
aF0.6832395696022144
aF0.6832376862008415
aF0.6832358047419426
aF0.6832339252195494
aF0.6832320476313938
aF0.683230171972062
aF0.6832282982392175
aF0.6832264264300469
aF0.6832245565387346
aF0.6832226885633006
aF0.6832208225007357
aF0.683218958346925
aF0.6832170960982754
aF0.6832152357516244
aF0.6832133773047471
aF0.6832115207536119
aF0.6832096660947371
aF0.6832078133254486
aF0.6832059624435369
aF0.6832041134443525
aF0.6832022663251045
aF0.6832004210840277
aF0.6831985777177237
aF0.683196736222224
aF0.6831948965967871
aF0.6831930588368438
aF0.6831912229395536
aF0.6831893889037481
aF0.6831875567256303
aF0.6831857264022526
aF0.6831838979322317
aF0.6831820713123804
aF0.6831802465394711
aF0.6831784236126944
aF0.6831766025281432
aF0.6831747832840918
aF0.6831729658771385
aF0.6831711503067457
aF0.6831693365706053
aF0.6831675246635539
aF0.6831657145862267
aF0.6831639063361307
aF0.6831620999099973
aF0.6831602953068316
aF0.683158492523297
aF0.6831566915593459
aF0.683154892410942
aF0.6831530950768262
aF0.6831512995560012
aF0.683149505845756
aF0.6831477139430719
aF0.6831459238477121
aF0.683144135558501
aF0.6831423490721127
aF0.6831405643874392
aF0.6831387815030067
aF0.6831370004166277
aF0.6831352211265138
aF0.6831334436320917
aF0.6831316679307162
aF0.6831298940218282
aF0.6831281219037135
aF0.6831263515741067
aF0.6831245830327464
aF0.6831228162772207
aF0.6831210513068179
aF0.683119288119793
aF0.683117526714663
aF0.6831157670913912
aF0.6831140092472816
aF0.683112253182094
aF0.6831104988932557
aF0.6831087463815256
aF0.683106995644307
aF0.6831052466808558
aF0.6831034994911616
aF0.6831017540717681
aF0.6831000104236324
aF0.683098268545791
aF0.683096528435738
aF0.6830947900944941
aF0.6830930535198487
aF0.6830913187110089
aF0.6830895856664545
aF0.6830878543878066
aF0.6830861248713872
aF0.6830843971177291
aF0.6830826711259446
aF0.6830809468956405
aF0.6830792244256957
aF0.6830775037149526
aF0.6830757847629956
aF0.6830740675700796
aF0.6830723521342679
aF0.6830706384561107
aF0.6830689265345581
aF0.683067216368107
aF0.683065507957717
aF0.6830638013012752
aF0.6830620963997927
aF0.683060393251907
aF0.6830586918580516
aF0.6830569922161602
aF0.6830552943261627
aF0.6830535981901841
aF0.6830519038044373
aF0.6830502111698333
aF0.6830485202866073
aF0.683046831154187
aF0.683045143772282
aF0.6830434581384024
aF0.6830417742549548
aF0.6830400921212668
aF0.683038411737088
aF0.6830367331010853
aF0.6830350562133514
aF0.6830333810745159
aF0.6830317076829127
aF0.6830300360405723
aF0.6830283661457839
aF0.6830266979979397
aF0.6830250315982441
aF0.6830233669449373
aF0.6830217040385934
aF0.6830200428801998
aF0.6830183834691826
aF0.6830167258030581
aF0.6830150698844349
aF0.6830134157136163
aF0.6830117632894949
aF0.6830101126108321
aF0.6830084636786389
aF0.6830068164935137
aF0.6830051710549521
aF0.6830035273626687
aF0.6830018854168025
aF0.6830002452176789
aF0.6829986067641819
aF0.682996970057295
aF0.6829953350972776
aF0.6829937018841831
aF0.6829920704170094
aF0.6829904406967362
aF0.6829888127228168
aF0.6829871864950517
aF0.6829855620145902
aF0.6829839392817425
aF0.6829823182943588
aF0.682980699054385
aF0.6829790815616688
aF0.6829774658158008
aF0.6829758518168777
aF0.6829742395652989
aF0.6829726290614518
aF0.6829710203048122
aF0.68296941329449
aF0.6829678080326775
aF0.6829662045187881
aF0.6829646027521912
aF0.6829630027336057
aF0.6829614044628014
aF0.6829598079399612
aF0.6829582131649413
aF0.6829566201381692
aF0.6829550288599127
aF0.682953439330576
aF0.6829518515477428
aF0.6829502655150297
aF0.6829486812305217
aF0.6829470986941819
aF0.6829455179062034
aF0.6829439388677246
aF0.682942361578122
aF0.6829407860377736
aF0.682939212244756
aF0.682937640202808
aF0.682936069908403
aF0.6829345013633
aF0.682932934567946
aF0.6829313695213692
aF0.6829298062234901
aF0.6829282446754267
aF0.6829266848765531
aF0.682925126826712
aF0.6829235705255922
aF0.6829220159742287
aF0.6829204631714092
aF0.6829189121174437
aF0.6829173628139503
aF0.6829158152588493
aF0.6829142694527404
aF0.6829127253948029
aF0.6829111830863053
aF0.6829096425261886
aF0.6829081037147748
aF0.682906566652907
aF0.6829050313391504
aF0.682903497772854
aF0.6829019659551525
aF0.6829004358861086
aF0.6828989075637182
aF0.6828973809905768
aF0.6828958561647805
aF0.6828943330848615
aF0.6828928117533838
aF0.6828912921681545
aF0.6828897743306598
aF0.682888258238303
aF0.68288674389228
aF0.6828852312926884
aF0.6828837204399474
aF0.6828822113307933
aF0.6828807039678789
aF0.6828791983479485
aF0.6828776944736539
aF0.6828761923435965
aF0.6828746919566805
aF0.6828731933133858
aF0.6828716964129455
aF0.682870201255432
aF0.682868707838941
aF0.6828672161647512
aF0.6828657262310626
aF0.6828642380385471
aF0.682862751585527
aF0.6828612668727078
aF0.6828597838989359
aF0.6828583026641327
aF0.6828568231668826
aF0.6828553454071357
aF0.6828538693842896
aF0.6828523950979687
aF0.6828509225466228
aF0.6828494517307513
aF0.6828479826489143
aF0.6828465153007773
aF0.6828450496851906
aF0.6828435858016236
aF0.6828421236506238
aF0.682840663229333
aF0.6828392045384157
aF0.6828377475764833
aF0.6828362923431053
aF0.6828348388371317
aF0.6828333870579553
aF0.6828319370035062
aF0.6828304886748262
aF0.6828290420698918
aF0.6828275971882712
aF0.6828261540286124
aF0.6828247125899578
aF0.6828232728713686
aF0.6828218348719941
aF0.6828203985909431
aF0.6828189640266047
aF0.6828175311783954
aF0.6828161000455608
aF0.682814670626081
aF0.6828132429192306
aF0.682811816923522
aF0.6828103926392888
aF0.6828089700633987
aF0.6828075491957343
aF0.6828061300350823
aF0.6828047125794636
aF0.6828032968283564
aF0.6828018827803695
aF0.6828004704339605
aF0.6827990597879028
aF0.6827976508404775
aF0.6827962435909601
aF0.6827948380375222
aF0.6827934341790007
aF0.6827920320135461
aF0.6827906315406285
aF0.6827892327574114
aF0.6827878356641424
aF0.6827864402580677
aF0.6827850465378242
aF0.6827836545015425
aF0.6827822641486483
aF0.6827808754761009
aF0.6827794884837658
aF0.682778103169351
aF0.6827767195314218
aF0.6827753375681833
aF0.6827739572780847
aF0.682772578660771
aF0.6827712017143637
aF0.6827698264408041
aF0.6827684528435697
aF0.6827670809340941
aF0.6827657107338359
aF0.6827643422731854
aF0.6827629755480503
aF0.6827616103976147
aF0.6827602465524818
aF0.6827588841288966
aF0.682757523663374
aF0.68275616521684
aF0.6827548082724093
aF0.6827534526209569
aF0.6827520987137379
aF0.6827507467542984
aF0.682749396338688
aF0.682748047316615
aF0.6827467000481782
aF0.682745354595073
aF0.6827440106381316
aF0.6827426681941503
aF0.682741327520074
aF0.6827399885249875
aF0.6827386510194395
aF0.6827373151323306
aF0.6827359809724106
aF0.682734648392664
aF0.6827333173494928
aF0.6827319879726923
aF0.6827306602475103
aF0.6827293340681738
aF0.6827280094790801
aF0.6827266865452151
aF0.682725365201778
aF0.6827240454145294
aF0.6827227272432288
aF0.6827214106883902
aF0.6827200956960772
aF0.6827187822795903
aF0.6827174704727049
aF0.6827161602472926
aF0.6827148515803679
aF0.6827135444967724
aF0.6827122390019922
aF0.6827109350676583
aF0.6827096326938359
aF0.6827083318984707
aF0.6827070326682388
aF0.682705734990028
aF0.682704438869194
aF0.6827031443132217
aF0.6827018513068536
aF0.6827005598446284
aF0.6826992699340027
aF0.6826979815711292
aF0.6826966947465367
aF0.6826954094590091
aF0.6826941257115207
aF0.6826928434979221
aF0.6826915628114587
aF0.6826902836543032
aF0.6826890060239407
aF0.6826877299154578
aF0.682686455324243
aF0.6826851822504423
aF0.6826839106911333
aF0.682682640640265
aF0.6826813720983027
aF0.6826801050611524
aF0.6826788395259169
aF0.6826775754888821
aF0.6826763129472212
aF0.6826750518986378
aF0.6826737923405568
aF0.6826725342683237
aF0.682671277679983
aF0.6826700225724411
aF0.6826687689424911
aF0.6826675167872261
aF0.6826662661030513
aF0.6826650168868238
aF0.6826637691365576
aF0.6826625228490553
aF0.6826612780199168
aF0.682660034648522
aF0.6826587927344393
aF0.6826575522753882
aF0.6826563132787768
aF0.6826550757566683
aF0.6826538397347823
aF0.6826526052585237
aF0.6826513723572415
aF0.6826501409386179
aF0.6826489106378499
aF0.6826476811188289
aF0.6826464528318331
aF0.6826452266037402
aF0.6826440023313853
aF0.6826427791585086
aF0.6826415568104862
aF0.6826403360127846
aF0.682639117147936
aF0.6826378996118562
aF0.6826366830278403
aF0.6826354678966826
aF0.6826342545218935
aF0.6826330424554456
aF0.6826318314749062
aF0.682630621974968
aF0.6826294140764192
aF0.682628207426957
aF0.6826270019812966
aF0.6826257980320298
aF0.6826245955473592
aF0.6826233942886105
aF0.6826221943277886
aF0.6826209958348676
aF0.6826197987052114
aF0.6826186028163371
aF0.6826174082783754
aF0.6826162151540378
aF0.6826150233317179
aF0.6826138327797959
aF0.6826126435915321
aF0.6826114557604797
aF0.6826102692055381
aF0.6826090839450918
aF0.6826079000327373
aF0.682606717432517
aF0.682605536101438
aF0.682604356073605
aF0.6826031773664946
aF0.6826019999404948
aF0.6826008237851229
aF0.6825996489261408
aF0.6825984753596007
aF0.6825973030571375
aF0.6825961320218997
aF0.6825949622665856
aF0.6825937937801464
aF0.6825926265463632
aF0.6825914605696789
aF0.6825902958568708
aF0.6825891323929151
aF0.6825879701698183
aF0.6825868091927217
aF0.6825856494597582
aF0.682584490958705
aF0.6825833336878944
aF0.6825821776462558
aF0.6825810228324742
aF0.6825798692355949
aF0.6825787168555741
aF0.6825775656907535
aF0.6825764157341785
aF0.6825752669818251
aF0.6825741194308764
aF0.6825729730793829
aF0.6825718279200819
aF0.6825706839501449
aF0.6825695411666148
aF0.682568399565636
aF0.6825672591432481
aF0.6825661198933606
aF0.6825649818149124
aF0.6825638449038516
aF0.6825627091535303
aF0.6825615745626888
aF0.6825604411262287
aF0.6825593088404738
aF0.682558177702291
aF0.6825570477056637
aF0.682555918847713
aF0.682554791125537
aF0.6825536645340542
aF0.6825525390692299
aF0.6825514147280712
aF0.6825502915048174
aF0.6825491693957705
aF0.68254804839869
aF0.6825469285083385
aF0.6825458097208641
aF0.6825446920327536
aF0.6825435754376403
aF0.6825424599335934
aF0.6825413455166043
aF0.6825402321828433
aF0.682539119927015
aF0.6825380087444526
aF0.6825368986339384
aF0.6825357895886621
aF0.6825346816051225
aF0.6825335746810074
aF0.682532468809206
aF0.682531363988643
aF0.6825302602124228
aF0.6825291574782463
aF0.6825280557812695
aF0.6825269551173678
aF0.6825258554836531
aF0.6825247568731283
aF0.6825236592850156
aF0.6825225627129281
aF0.6825214671534583
aF0.6825203726011452
aF0.6825192790538817
aF0.6825181865058163
aF0.6825170949540575
aF0.6825160043940898
aF0.6825149148201777
aF0.682513826230642
aF0.6825127386188662
aF0.6825116519825747
aF0.6825105663162392
aF0.6825094816163485
aF0.6825083978772739
aF0.6825073150967311
aF0.6825062332697188
aF0.6825051523912714
aF0.6825040724587165
aF0.6825029934657636
aF0.6825019154095395
aF0.6825008382849116
aF0.6824997620889626
aF0.6824986868161182
aF0.6824976124620663
aF0.6824965390225076
aF0.6824954664951539
aF0.6824943948723152
aF0.6824933241520776
aF0.6824922543301064
aF0.6824911854016322
aF0.6824901173606396
aF0.6824890502050304
aF0.6824879839301129
aF0.6824869185321122
aF0.6824858540040883
aF0.6824847903447677
aF0.6824837275475291
aF0.6824826656084528
aF0.6824816045248172
aF0.6824805442898011
aF0.6824794849016651
aF0.6824784263549049
aF0.6824773686439045
aF0.682476311765204
aF0.6824752557153264
aF0.6824742004882098
aF0.6824731460815763
aF0.6824720924893704
aF0.6824710397072475
aF0.6824699877314943
aF0.6824689365570359
aF0.6824678861799366
aF0.682466836596371
aF0.6824657878014454
aF0.6824647397899352
aF0.6824636925577477
aF0.6824626461015012
aF0.6824616004158066
aF0.6824605554964395
aF0.6824595113383991
aF0.6824584679391725
aF0.6824574252915048
aF0.6824563833936669
aF0.6824553422404258
aF0.6824543018261388
aF0.6824532621472376
aF0.6824522231988207
aF0.6824511849773925
aF0.6824501474779716
aF0.6824491106954058
aF0.6824480746273748
aF0.6824470392666591
aF0.6824460046113454
aF0.6824449706552935
aF0.6824439373960802
aF0.682442904831268
aF0.6824418729585522
aF0.6824408417838563
aF0.6824398113210292
aF0.6824387816058968
aF0.6824377527038932
aF0.6824367246672205
aF0.6824356973397314
aF0.6824346701353488
aF0.6824336427718227
aF0.6824326161792025
aF0.682431591202423
aF0.6824305671366606
aF0.6824295429439613
aF0.6824285190115145
aF0.6824274963435935
aF0.6824264746279702
aF0.682425452997461
aF0.6824244317363231
aF0.6824234115562997
aF0.6824223921177875
aF0.6824213728683602
aF0.6824203541712588
aF0.6824193364067707
aF0.6824183191915213
aF0.6824173022823778
aF0.6824162860375667
aF0.6824152705656712
aF0.6824142555418773
aF0.6824132409405191
aF0.6824122270223796
aF0.6824112137398956
aF0.6824102008820672
aF0.6824091885254883
aF0.6824081768164076
aF0.6824071656488492
aF0.6824061549202736
aF0.6824051447261519
aF0.6824041351222458
aF0.6824031260101486
aF0.6824021173558436
aF0.6824011092338529
aF0.6824001016501903
aF0.6823990945356135
aF0.6823980878854027
aF0.682397081747628
aF0.6823960761115657
aF0.6823950709291842
aF0.6823940662078051
aF0.6823930619747005
aF0.6823920582138143
aF0.6823910548944475
aF0.6823900520242605
aF0.6823890496176725
aF0.6823880476600469
aF0.6823870461312819
aF0.6823860450359506
aF0.6823850443799166
aF0.6823840441534443
aF0.6823830443416258
aF0.6823820449430402
aF0.6823810459641438
aF0.6823800473949093
aF0.6823790492227008
aF0.6823780514479459
aF0.6823770540694627
aF0.6823760570817636
aF0.6823750604756549
aF0.6823740642462097
aF0.6823730683939496
aF0.6823720729126848
aF0.6823710777951743
aF0.6823700830360065
aF0.6823690886332616
aF0.6823680945821826
aF0.6823671008760233
aF0.682366107511436
aF0.6823651144822588
aF0.6823641217842786
aF0.6823631294140456
aF0.6823621373641017
aF0.6823611456305274
aF0.6823601542099041
aF0.6823591630966357
aF0.6823581722847916
aF0.6823571817700156
aF0.6823561915471835
aF0.6823552016125448
aF0.6823542119596507
aF0.6823532225848675
aF0.6823522334823899
aF0.6823512446476909
aF0.6823502560756847
aF0.6823492677611667
aF0.6823482796984341
aF0.6823472918838176
aF0.6823463043124092
aF0.6823453169775118
aF0.6823443298753453
aF0.6823433430009679
aF0.6823423563487637
aF0.6823413699135197
aF0.6823403836898749
aF0.6823393976726083
aF0.6823384118592001
aF0.6823374262407461
aF0.6823364408149162
aF0.682335455574217
aF0.6823344705147895
aF0.6823334856319591
aF0.6823325009189838
aF0.6823315163717025
aF0.6823305319838615
aF0.6823295477511282
aF0.6823285636681433
aF0.6823275797282156
aF0.6823265959281455
aF0.682325612260799
aF0.6823246287209739
aF0.682323645304506
aF0.6823226620057274
aF0.6823216788183452
aF0.6823206957365044
aF0.6823197127559084
aF0.6823187298698666
aF0.6823177470736833
aF0.6823167643626474
aF0.6823157817299144
aF0.6823147991700413
aF0.6823138166775847
aF0.68231283424658
aF0.6823118518717641
aF0.6823108695479883
aF0.6823098872673401
aF0.6823089050276188
aF0.6823079228204973
aF0.6823069406406749
aF0.6823059584818268
aF0.6823049763393355
aF0.6823039942066464
aF0.6823030120779291
aF0.682302029947381
aF0.6823010478092033
aF0.682300065658059
aF0.6822990834856245
aF0.6822981012878488
aF0.6822971190588614
aF0.6822961367922088
aF0.6822951544800985
aF0.6822941721185574
aF0.6822931897006281
aF0.6822922072201012
aF0.6822912246718401
aF0.6822902420477914
aF0.682289259342475
aF0.6822882765494447
aF0.6822872936620396
aF0.6822863106750977
aF0.6822853275810846
aF0.6822843443739295
aF0.6822833610472835
aF0.6822823775939642
aF0.682281394008509
aF0.6822804102835482
aF0.6822794264125335
aF0.682278442389019
aF0.6822774582061104
aF0.682276473857295
aF0.6822754893357021
aF0.6822745046345455
aF0.6822735197472415
aF0.6822725346675934
aF0.6822715493870642
aF0.6822705639005198
aF0.6822695782003663
aF0.6822685922814896
aF0.6822676061378738
aF0.6822666197670746
aF0.6822656331690063
aF0.6822646463542825
aF0.6822636593474177
aF0.6822626722050618
aF0.6822616850195216
aF0.6822606978610638
aF0.6822597105733194
aF0.682258722406877
aF0.6822577326458505
aF0.6822567419476788
aF0.6822557520465349
aF0.6822547631635846
aF0.682253773781769
aF0.6822527828268126
aF0.6822517911382768
aF0.6822508000663025
aF0.6822498092629824
aF0.6822488174731042
aF0.6822478246348188
aF0.6822468317844422
aF0.6822458391825639
aF0.6822448460050318
aF0.6822438518639927
aF0.6822428573623464
aF0.6822418629044045
aF0.6822408680472766
aF0.682239872380493
aF0.6822388761760145
aF0.682237879805658
aF0.6822368830921247
aF0.6822358856931892
aF0.6822348876753062
aF0.6822338893130734
aF0.6822328905938285
aF0.682231891280271
aF0.6822308913174835
aF0.6822298908696011
aF0.6822288900069335
aF0.6822278886014961
aF0.6822268865513484
aF0.682225883915689
aF0.682224880781614
aF0.6822238771130988
aF0.6822228728193647
aF0.6822218678830572
aF0.6822208623580893
aF0.6822198562669701
aF0.682218849560402
aF0.6822178421913027
aF0.6822168341639598
aF0.6822158255071977
aF0.68221481621726
aF0.6822138062586335
aF0.6822127956046373
aF0.6822117842590366
aF0.6822107722311763
aF0.6822097595149961
aF0.6822087460848524
aF0.6822077319227056
aF0.6822067170250358
aF0.6822057013927603
aF0.682204685020547
aF0.6822036678922541
aF0.6822026499901677
aF0.6822016313065911
aF0.6822006118376308
aF0.6821995915777235
aF0.6821985705160717
aF0.6821975486393516
aF0.6821965259352907
aF0.6821955023967045
aF0.6821944780153514
aF0.6821934527839433
aF0.6821924266930579
aF0.6821913997294959
aF0.682190371883958
aF0.6821893431470004
aF0.6821883135094663
aF0.6821872829634723
aF0.6821862514988382
aF0.6821852191063978
aF0.682184185774832
aF0.6821831514943055
aF0.6821821162556774
aF0.6821810800502821
aF0.6821800428678197
aF0.6821790046986385
aF0.6821779655342792
aF0.6821769253642049
aF0.6821758841772463
aF0.6821748419659139
aF0.6821737987190675
aF0.6821727544277219
aF0.6821717090827185
aF0.682170662673282
aF0.6821696151907262
aF0.6821685666267953
aF0.6821675169690394
aF0.6821664662088247
aF0.6821654143366727
aF0.6821643613435266
aF0.6821633072190341
aF0.6821622519538753
aF0.6821611955383383
aF0.6821601379631814
aF0.6821590792191012
aF0.6821580192952108
aF0.682156958183689
aF0.6821558958745187
aF0.6821548323582659
aF0.6821537676247535
aF0.682152701665607
aF0.6821516344707689
aF0.6821505660303753
aF0.6821494963375357
aF0.6821484253797371
aF0.682147353148923
aF0.6821462796363778
aF0.6821452048331954
aF0.6821441287319917
aF0.682143051322883
aF0.6821419726024218
aF0.682140892568237
aF0.6821398112284023
aF0.6821387286024448
aF0.6821376447352561
aF0.682136559672994
aF0.6821354733941595
aF0.6821343856427774
aF0.6821332960994441
aF0.6821322051679188
aF0.6821311139496196
aF0.6821300224407212
aF0.6821289287831579
aF0.6821278305270153
aF0.6821267288015156
aF0.6821256274679481
aF0.6821245278456256
aF0.682123427140267
aF0.682122322698202
aF0.682121215381108
aF0.6821201077566007
aF0.6821190002891748
aF0.6821178910788049
aF0.682116778891894
aF0.6821156648545534
aF0.6821145504286193
aF0.6821134351344778
aF0.6821123175145241
aF0.682111197507144
aF0.6821100764368728
aF0.6821089546369582
aF0.6821078310078409
aF0.6821067050163592
aF0.6821055774834806
aF0.682104449006798
aF0.6821033190002016
aF0.6821021868576812
aF0.6821010529160354
aF0.6820999176951831
aF0.6820987810446841
aF0.6820976425406752
aF0.6820965021565965
aF0.682095360177375
aF0.6820942167140815
aF0.6820930716012639
aF0.6820919246674862
aF0.6820907759394406
aF0.6820896255767949
aF0.6820884736267785
aF0.6820873199584867
aF0.6820861644579223
aF0.6820850071806062
aF0.6820838482409716
aF0.6820826876271855
aF0.6820815252367416
aF0.682080361029387
aF0.6820791950479286
aF0.6820780273339789
aF0.6820768578759603
aF0.6820756866354343
aF0.6820745135824902
aF0.6820733387160869
aF0.6820721620589666
aF0.682070983624998
aF0.6820698033921887
aF0.6820686213298185
aF0.6820674374278395
aF0.6820662516992134
aF0.6820650641502238
aF0.6820638747745484
aF0.6820626835578734
aF0.6820614904894042
aF0.6820602955589471
aF0.6820590987697637
aF0.6820579001224522
aF0.682056699615547
aF0.6820554972397556
aF0.6820542929856284
aF0.6820530868468148
aF0.6820518788216948
aF0.6820506689049767
aF0.682049457097367
aF0.682048243394554
aF0.6820470277916302
aF0.6820458102818524
aF0.68204459086057
aF0.6820433695234842
aF0.6820421462695944
aF0.6820409210939418
aF0.6820396939940769
aF0.6820384649657668
aF0.6820372340077149
aF0.6820360011144005
aF0.682034766282784
aF0.6820335295088806
aF0.6820322907901641
aF0.6820310501239263
aF0.6820298075072828
aF0.6820285629364699
aF0.6820273164099158
aF0.6820260679254865
aF0.6820248174799328
aF0.6820235650709098
aF0.6820223106964003
aF0.6820210543531997
aF0.6820197960399188
aF0.682018535755275
aF0.6820172734953116
aF0.6820160092592393
aF0.6820147430450868
aF0.6820134748513078
aF0.6820122046761933
aF0.6820109325184993
aF0.6820096583762497
aF0.6820083822497838
aF0.6820071041376659
aF0.6820058240392377
aF0.682004541956952
aF0.6820032578923141
aF0.6820019718542399
aF0.6820006838555884
aF0.6819993939262716
aF0.6819981021233935
aF0.6819968085534597
aF0.6819955134184476
aF0.6819942169779862
aF0.6819929195278474
aF0.6819916205636103
aF0.6819903184992222
aF0.6819890104259351
aF0.6819876972732185
aF0.6819863836947622
aF0.6819850728703043
aF0.6819837622406043
aF0.6819824470694005
aF0.6819811264368301
aF0.6819798040013924
aF0.6819784827832076
aF0.6819771609700802
aF0.6819758351617162
aF0.6819745053606283
aF0.681973174383638
aF0.6819718434480159
aF0.6819705106872697
aF0.681969174338731
aF0.6819678352760584
aF0.6819664952527886
aF0.6819651542529215
aF0.6819638108515147
aF0.6819624644798911
aF0.6819611160865563
aF0.6819597664973804
aF0.6819584152995342
aF0.681957061662987
aF0.6819557055460332
aF0.6819543476116305
aF0.6819529881852875
aF0.681951626897125
aF0.6819502633136472
aF0.6819488975114222
aF0.6819475298805526
aF0.6819461605635596
aF0.6819447893323629
aF0.6819434159506175
aF0.6819420404639296
aF0.6819406630880649
aF0.6819392839212426
aF0.6819379028572599
aF0.681936519751656
aF0.6819351345975153
aF0.6819337475040268
aF0.6819323585549932
aF0.6819309677283585
aF0.6819295749450224
aF0.6819281801633041
aF0.6819267834187925
aF0.6819253847689166
aF0.6819239842394952
aF0.6819225818095447
aF0.681921177440375
aF0.68191977112109
aF0.6819183628699381
aF0.6819169527173632
aF0.6819155406771789
aF0.6819141267436931
aF0.681912710901661
aF0.681911293141936
aF0.6819098734706894
aF0.6819084519004994
aF0.6819070284427939
aF0.6819056031047449
aF0.6819041758815093
aF0.6819027467717853
aF0.681901315771386
aF0.6818998828837965
aF0.6818984481148987
aF0.6818970114714801
aF0.6818955729572882
aF0.6818941325762922
aF0.6818926903290562
aF0.6818912462155449
aF0.6818898002371812
aF0.6818883523968925
aF0.6818869026961594
aF0.6818854511380401
aF0.6818839977256673
aF0.6818825424638179
aF0.6818810853540439
aF0.6818796263979962
aF0.6818781655983188
aF0.6818767029580863
aF0.6818752384774449
aF0.6818737721593976
aF0.6818723040054364
aF0.6818708340186364
aF0.6818693621996403
aF0.6818678885521384
aF0.6818664130765133
aF0.6818649357767194
aF0.6818634566530429
aF0.6818619757096419
aF0.6818604929464376
aF0.6818590083676017
aF0.6818575219760946
aF0.681856033774324
aF0.6818545437690058
aF0.6818530519674926
aF0.6818515583836088
aF0.6818500630385836
aF0.6818485659689862
aF0.6818470672414336
aF0.6818455669611172
aF0.6818440653131301
aF0.6818425625050137
aF0.6818410588017875
aF0.6818395538880827
aF0.6818380468383443
aF0.6818365350693971
aF0.6818350176753631
aF0.6818334966746695
aF0.6818319767202891
aF0.6818304594426772
aF0.6818289421691184
aF0.6818274210577215
aF0.6818258946207882
aF0.6818243654542876
aF0.6818228367955768
aF0.6818213088724598
aF0.6818197791314996
aF0.6818182454664246
aF0.6818167085734401
aF0.6818151706476699
aF0.681813632656666
aF0.6818120934326639
aF0.6818105513889741
aF0.6818090064085178
aF0.6818074596681389
aF0.681805912099606
aF0.6818043633695687
aF0.6818028125067498
aF0.6818012590972179
aF0.6817997036005365
aF0.6817981466989875
aF0.6817965885085945
aF0.6817950285766733
aF0.681793466473718
aF0.6817919022100509
aF0.6817903361444968
aF0.6817887685424312
aF0.6817871993395009
aF0.6817856282691797
aF0.6817840551580108
aF0.6817824800593788
aF0.6817809031546189
aF0.6817793245593301
aF0.6817777442352728
aF0.6817761620562987
aF0.681774577926097
aF0.681772991852428
aF0.68177140391001
aF0.6817698141646823
aF0.681768222624585
aF0.6817666292421267
aF0.6817650339619501
aF0.6817634367542832
aF0.6817618376283037
aF0.681760236612296
aF0.6817586337289134
aF0.6817570289797962
aF0.6817554223449782
aF0.681753813800363
aF0.6817522033252066
aF0.6817505909125513
aF0.6817489765649525
aF0.6817473602860692
aF0.6817457420794225
aF0.6817441219422975
aF0.6817424998650565
aF0.6817408758356396
aF0.6817392498436561
aF0.6817376218783087
aF0.6817359919314162
aF0.6817343599990154
aF0.6817327260737349
aF0.6817310901517981
aF0.6817294522255958
aF0.6817278122907509
aF0.6817261703376984
aF0.6817245263585002
aF0.6817228803454176
aF0.6817212322888111
aF0.6817195821789358
aF0.681717930008163
aF0.6817162757679647
aF0.6817146194483132
aF0.6817129610411714
aF0.6817113005371478
aF0.681709637927346
aF0.681707973204276
aF0.6817063063571354
aF0.6817046373811928
aF0.6817029662666974
aF0.6817012930106674
aF0.6816996176132257
aF0.6816979400781061
aF0.681696260423408
aF0.6816945786803583
aF0.6816928949187926
aF0.6816912092388476
aF0.6816895218245584
aF0.6816878328475477
aF0.6816861425150117
aF0.6816844504317994
aF0.6816827556843787
aF0.6816810558626744
aF0.6816793498913181
aF0.6816776390710275
aF0.6816759277439931
aF0.6816742185137808
aF0.6816725100762904
aF0.6816707988660592
aF0.681669082071657
aF0.6816673602020826
aF0.68166563618861
aF0.6816639123795628
aF0.6816621881730639
aF0.6816604611372856
aF0.6816587296753408
aF0.6816569943313757
aF0.6816552570088523
aF0.681653518745116
aF0.681651778845114
aF0.6816500359024416
aF0.6816482892442235
aF0.6816465394660652
aF0.6816447875692291
aF0.6816430339206988
aF0.6816412780114555
aF0.6816395190969817
aF0.6816377569231766
aF0.6816359918259441
aF0.6816342243083545
aF0.6816324545304664
aF0.6816306822337446
aF0.6816289070374723
aF0.6816271287709351
aF0.6816253475553233
aF0.6816235636248248
aF0.6816217771024279
aF0.6816199879133134
aF0.6816181958757447
aF0.6816164008447677
aF0.6816146027965402
aF0.6816128018070055
aF0.6816109979597338
aF0.6816091912779475
aF0.6816073817086602
aF0.6816055691651574
aF0.6816037535763753
aF0.6816019349152049
aF0.6816001131916979
aF0.6815982884272362
aF0.6815964606320236
aF0.681594629788219
aF0.6815927958599753
aF0.6815909588058007
aF0.6815891185880141
aF0.6815872751837286
aF0.6815854285792003
aF0.6815835787659068
aF0.6815817257367918
aF0.6815798694764992
aF0.6815780099672937
aF0.6815761471862452
aF0.6815742811073375
aF0.6815724117074536
aF0.6815705389631204
aF0.6815686628536979
aF0.6815667833590634
aF0.6815649004626165
aF0.6815630141440666
aF0.6815611243859645
aF0.6815592311703836
aF0.6815573344767578
aF0.681555434286801
aF0.6815535305802672
aF0.681551623337668
aF0.6815497125385688
aF0.6815477981642745
aF0.681545880194382
aF0.6815439586093643
aF0.6815420333901899
aF0.6815401045171428
aF0.6815381719716875
aF0.6815362357337461
aF0.6815342957854995
aF0.6815323521090215
aF0.6815304046838824
aF0.6815284534941235
aF0.6815264985222075
aF0.6815245397539617
aF0.6815225771750084
aF0.6815206107771392
aF0.6815186405617535
aF0.6815166665420856
aF0.6815146887649262
aF0.6815127073233409
aF0.6815107224151703
aF0.6815087343722109
aF0.6815067437828755
aF0.6815047512099516
aF0.6815027569222143
aF0.6815007583890216
aF0.6814987506038264
aF0.68149672804007
aF0.681494696287053
aF0.6814926675003812
aF0.6814906462398551
aF0.6814886241810292
aF0.6814865904737093
aF0.6814845445930553
aF0.681482496136517
aF0.6814804515532755
aF0.6814784058357151
aF0.6814763508808879
aF0.6814742867704174
aF0.6814722203461432
aF0.6814701547496035
aF0.6814680856356576
aF0.6814660084649742
aF0.6814639248678731
aF0.6814618392215599
aF0.6814597520313227
aF0.6814576599314169
aF0.6814555610471127
aF0.6814534573405726
aF0.6814513511218279
aF0.6814492417882994
aF0.681447127215229
aF0.6814450069139089
aF0.6814428823911933
aF0.6814407546939281
aF0.681438623095125
aF0.6814364864094281
aF0.6814343446279071
aF0.6814321986965041
aF0.6814300490824603
aF0.6814278952702922
aF0.6814257366123895
aF0.6814235731620204
aF0.6814214054639314
aF0.6814192337755758
aF0.681417057813686
aF0.68141487720271
aF0.6814126919416165
aF0.6814105023259281
aF0.6814083085432887
aF0.681406110481303
aF0.6814039079208096
aF0.6814017008031968
aF0.6813994892663318
aF0.6813972734535996
aF0.6813950533663456
aF0.6813928288941014
aF0.6813905999620611
aF0.6813883666025651
aF0.6813861289067172
aF0.6813838869285996
aF0.6813816406480993
aF0.6813793900112307
aF0.6813771350009131
aF0.6813748756503497
aF0.6813726120092788
aF0.6813703441106295
aF0.6813680719498535
aF0.6813657955107216
aF0.6813635147914697
aF0.6813612298135509
aF0.6813589406154963
aF0.6813566472272219
aF0.6813543496715839
aF0.6813520479709375
aF0.6813497421608398
aF0.6813474322991524
aF0.6813451184287782
aF0.6813428004584328
aF0.6813404780652897
aF0.6813381510254445
aF0.6813358198322328
aF0.6813334852138675
aF0.6813311470573645
aF0.6813288046381796
aF0.6813264577240732
aF0.6813241069578171
aF0.681321752770016
aF0.6813193947236208
aF0.6813170324187463
aF0.6813146662247395
aF0.681312296559373
aF0.6813099231702271
aF0.6813075457565672
aF0.6813051645907736
aF0.6813027799645089
aF0.6813003916967124
aF0.6812979996155245
aF0.6812956039472404
aF0.6812932048698561
aF0.6812908022411409
aF0.6812883959966524
aF0.6812859863256969
aF0.6812835733258169
aF0.6812811568942106
aF0.6812787370406101
aF0.6812763139163119
aF0.68127388756527
aF0.6812714579315143
aF0.6812690250644347
aF0.6812665890781796
aF0.6812641499929846
aF0.6812617077918548
aF0.681259262541219
aF0.6812568143264137
aF0.6812543631617156
aF0.681251909060755
aF0.6812494520941407
aF0.681246992325562
aF0.6812445297766887
aF0.6812420644791437
aF0.6812395964999668
aF0.6812371258944527
aF0.6812346526911279
aF0.6812321769336556
aF0.6812296986850853
aF0.6812272179982589
aF0.6812247349114976
aF0.6812222494766329
aF0.6812197617609048
aF0.6812172718242366
aF0.6812147797305699
aF0.6812122855693361
aF0.6812097894682552
aF0.6812072916007632
aF0.681204792250699
aF0.6812022918642231
aF0.6811997911727664
aF0.6811972909964981
aF0.6811947919768867
aF0.6811922921915204
aF0.6811897863218604
aF0.6811872663368981
aF0.6811847347916448
aF0.6811822059387316
aF0.6811796905027678
aF0.6811771823895763
aF0.6811746671482053
aF0.6811721388738171
aF0.6811696066263597
aF0.6811670821612491
aF0.6811645639033995
aF0.6811620412060824
aF0.6811595097993316
aF0.6811569765442996
aF0.6811544485847442
aF0.681151923393582
aF0.6811493940661808
aF0.6811468597093683
aF0.6811443256829577
aF0.681141795121442
aF0.6811392650174121
aF0.6811367316362775
aF0.6811341959403299
aF0.6811316614389609
aF0.6811291289307105
aF0.6811265960062725
aF0.6811240610490419
aF0.6811215253901193
aF0.6811189909933724
aF0.6811164577598958
aF0.6811139241557742
aF0.6811113896150094
aF0.6811088551911213
aF0.6811063219200932
aF0.6811037895544045
aF0.6811012572246455
aF0.6810987247568001
aF0.681096192835364
aF0.6810936620419229
aF0.681091132228382
aF0.6810886029274374
aF0.6810860740647697
aF0.6810835460460467
aF0.6810810192436014
aF0.6810784936393264
aF0.6810759689962337
aF0.6810734452547058
aF0.6810709226324809
aF0.6810684013913911
aF0.6810658816066043
aF0.6810633631886518
aF0.6810608460858143
aF0.6810583303977339
aF0.6810558163025083
aF0.6810533039190012
aF0.681050793261255
aF0.6810482843062906
aF0.6810457770902385
aF0.6810432717187538
aF0.6810407683091793
aF0.6810382669325566
aF0.681035767616805
aF0.6810332703835329
aF0.6810307752863352
aF0.6810282824110242
aF0.6810257918427031
aF0.6810233036459048
aF0.6810208178660208
aF0.6810183345432657
aF0.6810158537292625
aF0.6810133754922065
aF0.6810108999037406
aF0.6810084270307059
aF0.6810059569251291
aF0.6810034896365226
aF0.6810010252155213
aF0.6809985637189708
aF0.6809961052105246
aF0.6809936497506242
aF0.6809911973981528
aF0.6809887482064995
aF0.6809863022290223
aF0.6809838595165408
aF0.6809814201241414
aF0.6809789841089321
aF0.680976551527028
aF0.6809741224330828
aF0.6809716968825487
aF0.680969274925846
aF0.6809668566149302
aF0.6809644420023439
aF0.6809620311400174
aF0.6809596240784169
aF0.6809572208717068
aF0.6809548215707186
aF0.6809524262259817
aF0.6809500348876346
aF0.6809476476059165
aF0.6809452644297878
aF0.6809428854071766
aF0.6809405105882016
aF0.680938140019837
aF0.6809357737499617
aF0.6809334118256378
aF0.6809310542953618
aF0.6809287012048231
aF0.680926352600266
aF0.6809240085276491
aF0.6809216690318641
aF0.6809193341578332
aF0.6809170039497275
aF0.6809146784504321
aF0.6809123577044183
aF0.6809100417543867
aF0.6809077306428171
aF0.680905424412025
aF0.6809031231031505
aF0.6809008267579129
aF0.6808985354158346
aF0.6808962491181939
aF0.6808939679046132
aF0.6808916918141744
aF0.6808894208853362
aF0.6808871551564819
aF0.6808848946667214
aF0.6808826394518477
aF0.6808803895495643
aF0.6808781449958571
aF0.6808759058285594
aF0.6808736720833994
aF0.680871443796639
aF0.6808692210041964
aF0.6808670037470634
aF0.6808647920623763
aF0.6808625859987159
aF0.6808603856087995
aF0.6808581909675955
aF0.6808560021754908
aF0.6808538193917666
aF0.680851642867192
aF0.6808494730196611
aF0.6808473104516515
aF0.680845156013801
aF0.6808430101662697
aF0.6808408721383459
aF0.6808387370732423
aF0.6808365980691667
aF0.6808344521473051
aF0.6808323099523422
aF0.6808301855570866
aF0.6808280807946018
aF0.6808259842816395
aF0.6808238840133682
aF0.6808217801033833
aF0.6808196838715154
aF0.6808176034767423
aF0.6808155343562681
aF0.6808134667811276
aF0.6808113983724968
aF0.6808093359093432
aF0.6808072855325816
aF0.6808052450190254
aF0.6808032081307345
aF0.6808011731970148
aF0.680799144418583
aF0.6807971255400325
aF0.6807951151436731
aF0.6807931094560675
aF0.6807911075792059
aF0.6807891120820528
aF0.6807871251471034
aF0.6807851459028607
aF0.680783172136709
aF0.6807812033095191
aF0.68077924090324
aF0.680777286230362
aF0.680775338875914
aF0.6807733975602817
aF0.680771461864152
aF0.6807695325562442
aF0.6807676104694889
aF0.6807656955192267
aF0.6807637870013165
aF0.680761884536901
aF0.680759988445542
aF0.6807580992512888
aF0.6807562170669449
aF0.6807543415615296
aF0.6807524724223686
aF0.6807506096930717
aF0.6807487536611574
aF0.680746904510338
aF0.6807450621558963
aF0.6807432263942031
aF0.6807413971394581
aF0.6807395744867089
aF0.6807377585855114
aF0.6807359494857022
aF0.680734147111911
aF0.6807323513659955
aF0.680730562225642
aF0.6807287797491127
aF0.6807270040073984
aF0.6807252350191473
aF0.6807234727450708
aF0.6807217171369404
aF0.6807199681771152
aF0.6807182258905543
aF0.6807164903109303
aF0.6807147614521354
aF0.6807130392995168
aF0.6807113238270412
aF0.6807096150174968
aF0.6807079128716919
aF0.6807062174016234
aF0.6807045286181126
aF0.6807028465178586
aF0.6807011710894277
aF0.6806995023182597
aF0.6806978401947943
aF0.6806961847149253
aF0.6806945358796154
aF0.6806928936900112
aF0.6806912581400302
aF0.680689629222968
aF0.6806880069249933
aF0.6806863912401073
aF0.680684782157255
aF0.680683179670757
aF0.6806815837775455
aF0.6806799944678765
aF0.6806784117359967
aF0.6806768355727506
aF0.6806752659665921
aF0.6806737029072133
aF0.6806721463852679
aF0.6806705963909745
aF0.6806690529145243
aF0.6806675159460207
aF0.680665985476874
aF0.6806644614955156
aF0.6806629439906274
aF0.6806614329515674
aF0.6806599283647948
aF0.6806584302200475
aF0.6806569385044071
aF0.6806554532060554
aF0.6806539743131275
aF0.6806525018123748
aF0.6806510356901383
aF0.6806495759353762
aF0.6806481225333926
aF0.6806466754720578
aF0.6806452347364006
aF0.6806438003134471
aF0.6806423721890331
aF0.6806409503484774
aF0.6806395347779625
aF0.6806381254618805
aF0.6806367223861726
aF0.6806353255360259
aF0.6806339348946002
aF0.6806325504485724
aF0.6806311721810969
aF0.6806298000790596
aF0.6806284341232117
aF0.680627074299618
aF0.6806257205908943
aF0.6806243729831836
aF0.680623031456676
aF0.6806216959975796
aF0.6806203665890239
aF0.6806190432145898
aF0.6806177258587703
aF0.6806164145044779
aF0.6806151091384569
aF0.6806138097454937
aF0.6806125163178157
aF0.6806112288473191
aF0.6806099473394138
aF0.6806086718131076
aF0.6806074023148955
aF0.6806061389400273
aF0.6806048818697713
aF0.6806036314158529
aF0.6806023881078418
aF0.6806011526485009
aF0.6805999258357356
aF0.680598707390135
aF0.6805974947038044
aF0.680596280575252
aF0.68059505878668
aF0.6805938323650775
aF0.6805926163685235
aF0.6805914215357245
aF0.6805902431676099
aF0.6805890674032679
aF0.6805878850053729
aF0.6805867007865873
aF0.6805855272517393
aF0.6805843693785197
aF0.6805832199270344
aF0.6805820696422001
aF0.6805809181893174
aF0.6805797731846516
aF0.6805786398225935
aF0.6805775149329687
aF0.6805763922941624
aF0.6805752706067343
aF0.6805741541500647
aF0.6805730465971717
aF0.6805719466034885
aF0.6805708503733262
aF0.6805697566609202
aF0.6805686677404221
aF0.6805675860062899
aF0.6805665110414768
aF0.6805654406469525
aF0.6805643737591661
aF0.6805633114380862
aF0.6805622551978546
aF0.680561205127274
aF0.6805601600532103
aF0.6805591191059595
aF0.6805580826125437
aF0.6805570514700202
aF0.6805560260028933
aF0.6805550056981039
aF0.6805539899155182
aF0.6805529785797955
aF0.6805519721215381
aF0.6805509708956642
aF0.6805499747996563
aF0.6805489834536396
aF0.6805479966247383
aF0.6805470144115244
aF0.6805460370521352
aF0.6805450646398897
aF0.6805440970386091
aF0.6805431340436574
aF0.6805421755702856
aF0.6805412216867097
aF0.6805402724996032
aF0.6805393280267472
aF0.6805383881810735
aF0.6805374528507938
aF0.6805365219850766
aF0.6805355956036274
aF0.6805346737497502
aF0.6805337564271488
aF0.6805328435900342
aF0.680531935171425
aF0.6805310311260669
aF0.6805301314433255
aF0.6805292361305106
aF0.680528345187746
aF0.6805274585931402
aF0.6805265763073701
aF0.6805256982911739
aF0.6805248245162585
aF0.6805239549701829
aF0.6805230896437499
aF0.6805222285249386
aF0.680521371588721
aF0.6805205188091449
aF0.6805196701556859
aF0.6805188256041272
aF0.680517985134888
aF0.6805171487307333
aF0.680516316377295
aF0.6805154880521772
aF0.6805146637340853
aF0.6805138433970652
aF0.6805130270190398
aF0.6805122145763297
aF0.6805114060508931
aF0.6805106014211217
aF0.680509800668022
aF0.6805090037724064
aF0.6805082107117587
aF0.6805074214656315
aF0.6805066360109453
aF0.6805058543268445
aF0.6805050763924989
aF0.6805043021868236
aF0.6805035316900719
aF0.6805027648811237
aF0.6805020017413073
aF0.6805012422481784
aF0.6805004863822472
aF0.6804997341238799
aF0.6804989854501008
aF0.6804982403418405
aF0.6804974987788605
aF0.6804967607407736
aF0.6804960262057789
aF0.680495295156138
aF0.6804945675705829
aF0.6804938434288603
aF0.6804931227125055
aF0.6804924053995339
aF0.6804916914712791
aF0.6804909809089977
aF0.680490273691433
aF0.6804895697992597
aF0.680488869213685
aF0.6804881719147527
aF0.6804874778834071
aF0.6804867871025074
aF0.6804860995520963
aF0.6804854152201789
aF0.6804847340945813
aF0.6804840561726417
aF0.6804833814651854
aF0.6804827099926696
aF0.6804820417599361
aF0.6804813766505429
aF0.6804807143182992
aF0.6804800544682352
aF0.6804793974765622
aF0.6804787440612345
aF0.6804780941758188
aF0.68047744708582
aF0.6804768024136219
aF0.680476160681111
aF0.6804755223680263
aF0.6804748870891547
aF0.6804742543464182
aF0.6804736243833898
aF0.6804729976578712
aF0.6804723740152588
aF0.6804717531534339
aF0.6804711353868486
aF0.6804705213292845
aF0.6804699114333719
aF0.6804693065796903
aF0.6804687091766856
aF0.6804681238324941
aF0.6804675588343574
aF0.6804670200009749
aF0.6804664671451673
aF0.6804658089544262
aF0.6804651152247205
aF0.6804645461230389
aF0.6804640051972302
aF0.6804633826033153
aF0.6804627989389191
aF0.68046224713122
aF0.6804616249000919
aF0.6804610399557137
aF0.6804605092640272
aF0.680459922074294
aF0.6804593416041032
aF0.6804587911898065
aF0.680458211423292
aF0.6804576568647762
aF0.680457117058856
aF0.6804565430712923
aF0.6804559892264561
aF0.6804554487495165
aF0.6804548934555443
aF0.6804543547978193
aF0.6804538128281946
aF0.6804532616904233
aF0.680452730635905
aF0.6804521976046219
aF0.6804516593192098
aF0.6804511317232881
aF0.6804506000658338
aF0.6804500715625947
aF0.6804495527580133
aF0.6804490284904448
aF0.6804485066459542
aF0.6804479913857989
aF0.6804474749824851
aF0.6804469647713892
aF0.6804464591218247
aF0.6804459498342348
aF0.6804454395288333
aF0.6804449297939212
aF0.6804444260021166
aF0.6804439301281329
aF0.6804434310306332
aF0.6804429289074666
aF0.6804424348937446
aF0.6804419452623867
aF0.6804414531652057
aF0.6804409623610581
aF0.6804404760690564
aF0.6804399922241895
aF0.680439508557962
aF0.6804390264298642
aF0.6804385482432821
aF0.6804380716196732
aF0.6804375948004157
aF0.6804371211845176
aF0.6804366508573378
aF0.6804361806498531
aF0.6804357119025553
aF0.6804352463995968
aF0.6804347823384609
aF0.680434319296539
aF0.6804338586570928
aF0.6804334001380001
aF0.680432942882949
aF0.6804324871942363
aF0.68043203362356
aF0.6804315819542939
aF0.6804311316746247
aF0.6804306830282554
aF0.6804302364273429
aF0.6804297914367023
aF0.680429347812381
aF0.6804289060752465
aF0.680428466202755
aF0.6804280277169784
aF0.6804275908016508
aF0.6804271557243755
aF0.6804267222238409
aF0.6804262901897313
aF0.6804258598299183
aF0.6804254311362978
aF0.680425003950845
aF0.6804245782821854
aF0.6804241542077459
aF0.6804237317141666
aF0.6804233107234877
aF0.6804228912291338
aF0.6804224732914814
aF0.6804220568837505
aF0.6804216419275324
aF0.6804212284435591
aF0.6804208164821635
aF0.6804204059893723
aF0.680419996920228
aF0.6804195893159081
aF0.6804191831787793
aF0.6804187784588381
aF0.6804183751463615
aF0.6804179732627755
aF0.6804175727929115
aF0.6804171737104389
aF0.6804167760143686
aF0.6804163797042782
aF0.680415984770805
aF0.6804155911976756
aF0.6804151989735461
aF0.6804148080997328
aF0.6804144185698429
aF0.6804140303665639
aF0.6804136434811341
aF0.6804132579137038
aF0.6804128736554698
aF0.6804124906928397
aF0.6804121090185004
aF0.6804117286303656
aF0.6804113495173609
aF0.6804109716698109
aF0.6804105950808734
aF0.6804102197447148
aF0.6804098456545911
aF0.6804094727998613
aF0.680409101173755
aF0.6804087307707325
aF0.6804083615836916
aF0.6804079936031842
aF0.6804076268226147
aF0.6804072612355239
aF0.6804068968350458
aF0.6804065336149281
aF0.6804061715647423
aF0.680405810681024
aF0.6804054509548916
aF0.6804050923810034
aF0.6804047349518509
aF0.6804043786608942
aF0.6804040235008346
aF0.6804036694663489
aF0.6804033165491868
aF0.6804029647434652
aF0.6804026140434454
aF0.6804022644420585
aF0.6804019159328349
aF0.6804015685099059
aF0.6804012221674355
aF0.6804008768982154
aF0.6804005326972506
aF0.6804001895574314
aF0.680399847473643
aF0.6803995064402714
aF0.6803991664533738
aF0.6803988275065704
aF0.6803984895979681
aF0.6803981527253304
aF0.6803978168913833
aF0.6803974821039057
aF0.6803971483795721
aF0.6803968157565055
aF0.6803964843031602
aF0.6803961541474172
aF0.6803958255228914
aF0.6803954988345391
aF0.6803951747794421
aF0.6803948543987192
aF0.6803945390522727
aF0.6803942293409758
aF0.6803939231134339
aF0.6803936114444598
aF0.6803932822530422
aF0.6803929332399591
aF0.6803925843476047
aF0.6803922582717139
aF0.6803919548353289
aF0.680391653169712
aF0.6803913343683574
aF0.6803910014259953
aF0.6803906745853832
aF0.6803903653075379
aF0.6803900634741754
aF0.6803897530009347
aF0.6803894322101678
aF0.6803891138388234
aF0.6803888066586662
aF0.6803885048430166
aF0.6803881980050063
aF0.680387885229903
aF0.6803875746073896
aF0.6803872711547109
aF0.6803869708298043
aF0.6803866674554205
aF0.6803863610751814
aF0.6803860567307842
aF0.6803857570034335
aF0.6803854591399503
aF0.6803851596095389
aF0.6803848587519099
aF0.6803845595906456
aF0.6803842634687929
aF0.680383968671026
aF0.680383673174898
aF0.6803833772267731
aF0.6803830825794692
aF0.6803827900290835
aF0.68038249861748
aF0.6803822071466493
aF0.6803819156683935
aF0.6803816251641651
aF0.6803813361846076
aF0.6803810482802033
aF0.6803807607226618
aF0.6803804734080598
aF0.6803801868407845
aF0.6803799014300467
aF0.6803796170402732
aF0.6803793332481352
aF0.6803790498711091
aF0.6803787671124428
aF0.6803784852587518
aF0.6803782043444638
aF0.6803779241647357
aF0.6803776445383882
aF0.680377365487363
aF0.6803770871712107
aF0.6803768096872315
aF0.6803765329828673
aF0.6803762569333027
aF0.6803759814814091
aF0.6803757066719409
aF0.6803754325870914
aF0.6803751592524336
aF0.680374886623776
aF0.6803746146382975
aF0.6803743432753393
aF0.6803740725611551
aF0.6803738025348889
aF0.6803735332053179
aF0.6803732645473861
aF0.6803729965286863
aF0.6803727291358994
aF0.6803724623780065
aF0.6803721962751251
aF0.6803719308295831
aF0.6803716660337674
aF0.6803714018701664
aF0.6803711383245054
aF0.6803708753986513
aF0.6803706130979645
aF0.6803703514263209
aF0.6803700903826491
aF0.6803698299585387
aF0.6803695701423258
aF0.6803693109302283
aF0.680369052321692
aF0.6803687943187187
aF0.6803685369194945
aF0.6803682801217197
aF0.6803680239210028
aF0.6803677683101398
aF0.6803675132863122
aF0.680367258847218
aF0.6803670049905911
aF0.6803667517166833
aF0.6803664990207368
aF0.6803662469012599
aF0.6803659953550139
aF0.680365744376737
aF0.6803654939636231
aF0.6803652441130325
aF0.6803649948231865
aF0.6803647460926212
aF0.6803644979186252
aF0.68036425029763
aF0.6803640032259639
aF0.6803637567025133
aF0.6803635107237636
aF0.6803632652857731
aF0.6803630203877571
aF0.6803627760262201
aF0.6803625321992495
aF0.680362288903314
aF0.6803620461378715
aF0.6803618038982518
aF0.6803615621830372
aF0.6803613209895213
aF0.6803610803137793
aF0.6803608401545942
aF0.6803606005094366
aF0.6803603613756581
aF0.6803601227509983
aF0.6803598846326298
aF0.6803596470182649
aF0.6803594099055241
aF0.6803591732917807
aF0.6803589371750997
aF0.6803587015528058
aF0.6803584664222242
aF0.6803582317810218
aF0.6803579976281331
aF0.6803577639590929
aF0.6803575307727343
aF0.6803572980668111
aF0.6803570658385968
aF0.6803568340855453
aF0.6803566028063058
aF0.6803563719983005
aF0.6803561416591182
aF0.6803559117858895
aF0.6803556823771062
aF0.6803554534304587
aF0.68035522494301
aF0.6803549969134266
aF0.6803547693389065
aF0.6803545422180355
aF0.6803543155475946
aF0.6803540893261365
aF0.6803538635517776
aF0.6803536382211551
aF0.6803534133332465
aF0.6803531888864319
aF0.6803529648771716
aF0.6803527413045931
aF0.6803525181670362
aF0.6803522954623743
aF0.6803520731907804
aF0.6803518513515895
aF0.680351629947855
aF0.6803514089845348
aF0.6803511884756188
aF0.6803509684481648
aF0.6803507489588088
aF0.6803505301212208
aF0.680350312156061
aF0.6803500954877848
aF0.6803498808173214
aF0.680349669070781
aF0.680349460500303
aF0.6803492533766058
aF0.6803490441403894
aF0.6803488339176164
aF0.6803486302999561
aF0.6803484358105736
aF0.6803482347765192
aF0.6803480059164014
aF0.6803477511065483
aF0.6803475046358087
aF0.680347293490412
aF0.6803471056726533
aF0.6803469074973658
aF0.6803466817892536
aF0.6803464461969091
aF0.6803462283140157
aF0.680346030064845
aF0.6803458299664457
aF0.6803456136587634
aF0.6803453903196137
aF0.6803451768792701
aF0.6803449748831248
aF0.6803447716323833
aF0.6803445592487536
aF0.6803443437208706
aF0.6803441344196978
aF0.6803439312959368
aF0.6803437269245503
aF0.6803435175496578
aF0.680343307119867
aF0.68034310063359
aF0.6803428975049804
aF0.68034269348685
aF0.6803424868019284
aF0.6803422798838348
aF0.6803420754357514
aF0.680341872968033
aF0.6803416700616551
aF0.6803414657613246
aF0.6803412614713532
aF0.6803410587508287
aF0.6803408573706975
aF0.6803406559676362
aF0.6803404539754269
aF0.6803402522919114
aF0.6803400522266323
aF0.680339854570109
aF0.6803396603682356
aF0.6803394729872461
aF0.6803392990325217
aF0.6803391427177001
aF0.6803389835854847
aF0.6803387682080977
aF0.6803384923995228
aF0.6803382562602908
aF0.6803381002620634
aF0.6803379334636215
aF0.680337696386198
aF0.6803374665075419
aF0.6803372982828717
aF0.6803371189197914
aF0.6803368910091298
aF0.680336683731673
aF0.6803365128525904
aF0.6803363160580256
aF0.6803360980871307
aF0.680335909270994
aF0.680335728676273
aF0.6803355223470005
aF0.6803353199313985
aF0.6803351378131604
aF0.6803349451781251
aF0.6803347410589581
aF0.6803345510944273
aF0.680334365401819
aF0.6803341671736176
aF0.6803339714627838
aF0.68033378553875
aF0.6803335941180243
aF0.6803333978032525
aF0.6803332087311311
aF0.680333021249216
aF0.6803328278558773
aF0.6803326362476181
aF0.6803324493224074
aF0.6803322596680147
aF0.6803320679521374
aF0.6803318798857775
aF0.6803316926274885
aF0.6803315026668367
aF0.6803313136656928
aF0.6803311270616177
aF0.6803309393498609
aF0.6803307506688765
aF0.6803305637843267
aF0.6803303775794353
aF0.680330190209886
aF0.6803300032167222
aF0.6803298175633734
aF0.6803296316799627
aF0.6803294452988019
aF0.6803292597655389
aF0.6803290748678628
aF0.6803288895793809
aF0.680328704378219
aF0.6803285199483909
aF0.6803283357072728
aF0.6803281512604441
aF0.6803279671821902
aF0.6803277836337679
aF0.680327600109728
aF0.6803274166013302
aF0.6803272335216775
aF0.6803270507860834
aF0.6803268680959152
aF0.6803266856131056
aF0.6803265035899708
aF0.6803263219017106
aF0.680326140355442
aF0.6803259588654218
aF0.6803257771832574
aF0.6803255952915483
aF0.6803254138301226
aF0.6803252332180798
aF0.6803250529598764
aF0.6803248723756402
aF0.6803246916512907
aF0.6803245114946642
aF0.6803243318951313
aF0.6803241522443019
aF0.6803239724414321
aF0.6803237929881768
aF0.6803236140113704
aF0.6803234351008661
aF0.6803232561269812
aF0.6803230774250286
aF0.6803228990976696
aF0.6803227208697316
aF0.6803225426541888
aF0.6803223646803529
aF0.6803221870053011
aF0.6803220094351993
aF0.6803218319305943
aF0.6803216546501096
aF0.680321477611494
aF0.6803213006835792
aF0.6803211238531481
aF0.6803209472298614
aF0.680320770809854
aF0.680320594503469
aF0.6803204183150698
aF0.6803202423164318
aF0.680320066492911
aF0.6803198907867073
aF0.6803197152093754
aF0.6803195398040254
aF0.6803193645559149
aF0.6803191894264252
aF0.6803190144297051
aF0.6803188395891393
aF0.6803186648912346
aF0.6803184903139369
aF0.6803183158665578
aF0.6803181415636435
aF0.6803179673930411
aF0.6803177933413757
aF0.6803176194153341
aF0.6803174456221044
aF0.6803172719522464
aF0.6803170983977905
aF0.6803169249647256
aF0.6803167516542897
aF0.6803165784606506
aF0.6803164053774529
aF0.6803162324088886
aF0.6803160595545815
aF0.680315886812161
aF0.6803157141769016
aF0.6803155416517099
aF0.6803153692413552
aF0.6803151969456065
aF0.6803150247747485
aF0.6803148527494403
aF0.6803146809062663
aF0.6803145093153784
aF0.6803143381132549
aF0.6803141675604198
aF0.6803139981474242
aF0.6803138307859019
aF0.6803136670614277
aF0.6803135095160358
aF0.6803133610127731
aF0.6803132219550212
aF0.6803130820429502
aF0.6803129164259157
aF0.6803127051466717
aF0.6803124752207467
aF0.6803122816284581
aF0.6803121369871359
aF0.6803119980375655
aF0.6803118208171035
aF0.6803116150274212
aF0.6803114283490272
aF0.6803112757592198
aF0.6803111229357612
aF0.6803109419189145
aF0.680310750503251
aF0.6803105793924111
aF0.6803104239835503
aF0.6803102573946589
aF0.6803100747833101
aF0.680309897293554
aF0.6803097352103386
aF0.6803095745629563
aF0.6803094039970058
aF0.6803092330142549
aF0.6803090738327967
aF0.680308919327633
aF0.6803087504580759
aF0.6803085624773919
aF0.6803083733113707
aF0.6803082011254891
aF0.6803080417412409
aF0.6803078785535461
aF0.6803077037794877
aF0.6803075246734243
aF0.6803073524413535
aF0.6803071874470994
aF0.6803070209732378
aF0.6803068481720975
aF0.6803066736227482
aF0.6803065036220421
aF0.680306336997023
aF0.6803061681083628
aF0.6803059956441779
aF0.6803058237775964
aF0.6803056551169521
aF0.6803054870901238
aF0.6803053166725971
aF0.6803051449594458
aF0.6803049748116312
aF0.6803048062334479
aF0.680304636859322
aF0.6803044659200819
aF0.680304295119478
aF0.6803041256374328
aF0.6803039564379814
aF0.6803037861955791
aF0.680303615324777
aF0.6803034450607429
aF0.6803032754794927
aF0.6803031055748525
aF0.6803029349148257
aF0.6803027641782925
aF0.6803025939708152
aF0.6803024239572922
aF0.6803022534933737
aF0.6803020825989455
aF0.6803019118099337
aF0.680301741334611
aF0.6803015708071786
aF0.6803013998941478
aF0.6803012287422338
aF0.6803010576927768
aF0.680300886777311
aF0.680300715726404
aF0.6803005443777554
aF0.6803003728681611
aF0.680300201396199
aF0.6803000299474335
aF0.6802998583476668
aF0.6802996865114423
aF0.6802995145309184
aF0.6802993425212883
aF0.680299170468504
aF0.6802989982660248
aF0.6802988258625221
aF0.6802986533058404
aF0.6802984806636707
aF0.6802983079336078
aF0.6802981350561151
aF0.6802979619925148
aF0.6802977887603762
aF0.6802976153988456
aF0.6802974419135837
aF0.6802972682746043
aF0.6802970944519812
aF0.6802969204470964
aF0.6802967462788084
aF0.6802965719538079
aF0.680296397459571
aF0.6802962227780422
aF0.6802960479003672
aF0.680295872830902
aF0.6802956975753365
aF0.6802955221312679
aF0.6802953464852007
aF0.6802951706287473
aF0.6802949945582263
aF0.6802948182749988
aF0.6802946417792752
aF0.6802944650612555
aF0.6802942881158572
aF0.6802941109362921
aF0.6802939335195017
aF0.6802937558642524
aF0.680293577965253
aF0.6802933998176404
aF0.6802932214136569
aF0.6802930427495031
aF0.6802928638207058
aF0.6802926846240747
aF0.6802925051545546
aF0.6802923254044188
aF0.6802921453707567
aF0.6802919650468875
aF0.6802917844285961
aF0.6802916035105415
aF0.6802914222880421
aF0.6802912407552975
aF0.6802910589058206
aF0.6802908767339775
aF0.6802906942348399
aF0.6802905114032501
aF0.6802903282333113
aF0.6802901447192657
aF0.6802899608541215
aF0.6802897766324195
aF0.6802895920483898
aF0.6802894070946616
aF0.680289221767876
aF0.6802890360585628
aF0.680288849962325
aF0.6802886634712783
aF0.6802884765804883
aF0.6802882892813449
aF0.6802881015696001
aF0.6802879134363302
aF0.6802877248759684
aF0.6802875358822457
aF0.6802873464493502
aF0.6802871565726056
aF0.6802869662487578
aF0.6802867754831964
aF0.6802865842912681
aF0.6802863927127912
aF0.6802862008407774
aF0.6802860088819591
aF0.6802858172786553
aF0.6802856269705954
aF0.6802854398608289
aF0.6802852595120944
aF0.6802850911787796
aF0.680284937894878
aF0.6802847856154115
aF0.6802845912404653
aF0.6802843274970136
aF0.6802840590494498
aF0.680283866131605
aF0.6802837184921255
aF0.6802835256214832
aF0.6802832759942884
aF0.6802830523177779
aF0.6802828813775572
aF0.6802826949417767
aF0.6802824625031343
aF0.6802822406245731
aF0.6802820562947746
aF0.6802818615340046
aF0.6802816353814279
aF0.6802814190290539
aF0.6802812265148956
aF0.6802810225019849
aF0.6802807990976526
aF0.6802805862352852
aF0.6802803865336406
aF0.6802801751480516
aF0.680279953293029
aF0.6802797410618358
aF0.6802795344612445
aF0.6802793177176356
aF0.6802790963681735
aF0.6802788823708412
aF0.6802786694224799
aF0.6802784487226866
aF0.6802782266056597
aF0.6802780092729863
aF0.6802777906990602
aF0.6802775666480392
aF0.6802773425151732
aF0.6802771210052091
aF0.6802768973947697
aF0.6802766700203653
aF0.6802764428458491
aF0.6802762167598536
aF0.6802759884403834
aF0.6802757574502007
aF0.6802755264743141
aF0.6802752956103038
aF0.6802750626530376
aF0.6802748276443655
aF0.6802745923286233
aF0.6802743565491268
aF0.6802741188937509
aF0.680273879541046
aF0.680273639652294
aF0.6802733991307688
aF0.6802731572249401
aF0.6802729143888937
aF0.680272671935008
aF0.6802724308095592
aF0.680272192267649
aF0.6802719591168597
aF0.6802717347431209
aF0.6802715181477827
aF0.6802712966274924
aF0.6802710423736076
aF0.680270738807146
aF0.6802704174016819
aF0.6802701348759793
aF0.6802699017712777
aF0.680269672800443
aF0.6802694025227529
aF0.6802690987571133
aF0.6802688104861649
aF0.6802685572202354
aF0.6802683065186684
aF0.680268025826599
aF0.6802677272647076
aF0.6802674442770494
aF0.6802671796839792
aF0.6802669068202233
aF0.6802666132297832
aF0.6802663165148652
aF0.6802660332101376
aF0.6802657544554525
aF0.6802654641552517
aF0.6802651648796813
aF0.6802648719028189
aF0.6802645897811743
aF0.6802643090352383
aF0.68026402047206
aF0.6802637186852187
aF0.6802633967963444
aF0.6802630603013903
aF0.6802627326207277
aF0.6802624262187714
aF0.680262125455617
aF0.680261806190725
aF0.6802614674058887
aF0.6802611324512469
aF0.6802608123661391
aF0.6802604910879875
aF0.680260153014403
aF0.680259806396878
aF0.6802594669346561
aF0.6802591318166621
aF0.6802587874335227
aF0.6802584326568775
aF0.6802580783244955
aF0.6802577273825827
aF0.6802573715325885
aF0.6802570067636589
aF0.680256639018945
aF0.6802562724324847
aF0.6802559026933819
aF0.6802555256143055
aF0.6802551439556908
aF0.6802547615256757
aF0.680254376525171
aF0.6802539853416236
aF0.6802535886993102
aF0.6802531896483709
aF0.6802527880564968
aF0.6802523812021535
aF0.6802519684642128
aF0.6802515518411878
aF0.6802511321957629
aF0.6802507079485316
aF0.6802502778439463
aF0.6802498427000288
aF0.6802494036207902
aF0.6802489601087511
aF0.6802485109941812
aF0.6802480561863525
aF0.6802475964341015
aF0.680247131877727
aF0.6802466618219307
aF0.6802461857951665
aF0.6802457040333518
aF0.6802452168096262
aF0.6802447238565508
aF0.6802442247168201
aF0.6802437192912776
aF0.6802432077278378
aF0.6802426899698855
aF0.6802421656984541
aF0.6802416346738935
aF0.680241096884178
aF0.6802405523312446
aF0.6802400008278171
aF0.6802394421052413
aF0.6802388760172843
aF0.6802383025284799
aF0.6802377215442055
aF0.6802371328506414
aF0.6802365362267276
aF0.6802359315402301
aF0.6802353187065298
aF0.6802346975846686
aF0.6802340679683186
aF0.6802334296584288
aF0.6802327825090165
aF0.6802321263926909
aF0.680231461145545
aF0.6802307865696952
aF0.6802301024746283
aF0.6802294086963041
aF0.6802287050766933
aF0.6802279914385063
aF0.6802272675869772
aF0.6802265333297495
aF0.6802257884900832
aF0.6802250328926599
aF0.680224266351752
aF0.6802234886699222
aF0.680222699652821
aF0.6802218991152971
aF0.6802210868738443
aF0.680220262738514
aF0.680219426512951
aF0.680218578003112
aF0.680217717019429
aF0.6802168433762334
aF0.6802159568880505
aF0.6802150573651251
aF0.6802141446183253
aF0.6802132184656939
aF0.6802122787256514
aF0.6802113252228634
aF0.6802103577838504
aF0.68020937623554
aF0.6802083804093888
aF0.6802073701469241
aF0.6802063452911354
aF0.6802053056925612
aF0.6802042512069388
aF0.6802031816983992
aF0.6802020970383362
aF0.6802009971069461
aF0.6801998817943699
aF0.6801987510006062
aF0.6801976046363001
aF0.6801964426230033
aF0.6801952648968832
aF0.6801940714034693
aF0.6801928621068852
aF0.6801916369856574
aF0.6801903960313762
aF0.6801891392537553
aF0.6801878666822558
aF0.680186578363626
aF0.6801852743632913
aF0.6801839547698851
aF0.6801826196906893
aF0.6801812692583703
aF0.6801799036266403
aF0.6801785229757208
aF0.6801771275091527
aF0.6801757174575588
aF0.6801742930785163
aF0.6801728546576061
aF0.6801714025084886
aF0.6801699369739964
aF0.6801684584268767
aF0.680166967270571
aF0.6801654639381036
aF0.680163948896253
aF0.6801624226425178
aF0.6801608857076704
aF0.6801593386563363
aF0.6801577820924638
aF0.6801562166569142
aF0.6801546430362395
aF0.6801530619534886
aF0.6801514741125742
aF0.68014988008908
aF0.6801482803111522
aF0.68014667550232
aF0.6801450670712017
aF0.6801434563905943
aF0.6801418440324646
aF0.6801402302288025
aF0.6801386158137372
aF0.680137002321873
aF0.6801353909674299
aF0.680133782247596
aF0.680132176808415
aF0.6801305759681645
aF0.6801289810366471
aF0.6801273927461539
aF0.6801258117921426
aF0.6801242393541509
aF0.6801226766570917
aF0.6801211245033751
aF0.6801195836405004
aF0.6801180551423042
aF0.6801165400881469
aF0.6801150392501083
aF0.6801135533690882
aF0.6801120833878853
aF0.6801106302109803
aF0.6801091945168908
aF0.6801077769698449
aF0.6801063783460506
aF0.6801049993531649
aF0.6801036405333148
aF0.68010230241745
aF0.6801009855900038
aF0.680099690560301
aF0.6800984177277851
aF0.680097167502195
aF0.680095940361688
aF0.6800947368180127
aF0.6800935575229573
aF0.6800924035697624
aF0.6800912768954238
aF0.6800901808029713
aF0.6800891201350238
aF0.6800880989697395
aF0.6800871105118269
aF0.6800861231783414
aF0.6800850985228053
aF0.6800840643536681
aF0.680083110966142
aF0.680082264241683
aF0.6800814388450142
aF0.6800805372302212
aF0.680079573134855
aF0.680078659988694
aF0.6800778539743246
aF0.6800770970382286
aF0.6800763257942701
aF0.6800755458477898
aF0.6800747851500902
aF0.6800740526610642
aF0.6800733487207749
aF0.6800726728554815
aF0.6800720083736467
aF0.6800713386963613
aF0.680070681740965
aF0.6800700643951988
aF0.6800694738049305
aF0.6800688761578393
aF0.6800682746699949
aF0.6800677021747876
aF0.6800671623071403
aF0.6800666252018328
aF0.6800660802219742
aF0.6800655503248135
aF0.6800650485214971
aF0.680064557583209
aF0.6800640625943716
aF0.6800635736737004
aF0.6800631041241816
aF0.6800626481630333
aF0.6800621937825829
aF0.6800617421969878
aF0.6800613020444215
aF0.6800608738520861
aF0.6800604511186407
aF0.6800600315118956
aF0.6800596184491634
aF0.6800592139195156
aF0.6800588159294605
aF0.6800584224129123
aF0.6800580335911856
aF0.6800576503545642
aF0.6800572727449733
aF0.6800569002990626
aF0.6800565325813474
aF0.6800561693446029
aF0.6800558109657834
aF0.6800554586076364
aF0.6800551136140411
aF0.6800547772179696
aF0.6800544507182437
aF0.680054133166261
aF0.6800538143224688
aF0.6800534743166441
aF0.6800531081140153
aF0.6800527472268947
aF0.6800524240839806
aF0.6800521281254989
aF0.6800518219056446
aF0.6800514892267107
aF0.6800511559788744
aF0.6800508498230672
aF0.6800505592373838
aF0.6800502561430946
aF0.6800499396644246
aF0.6800496336049244
aF0.6800493455161398
aF0.6800490575536747
aF0.6800487587052044
aF0.6800484609719092
aF0.6800481761153058
aF0.6800478966509436
aF0.680047611350741
aF0.6800473239755276
aF0.6800470443935523
aF0.6800467712792931
aF0.6800464962848178
aF0.6800462188516161
aF0.680045945621442
aF0.6800456781943673
aF0.6800454114058624
aF0.6800451429132881
aF0.6800448763914264
aF0.6800446143844858
aF0.6800443543571136
aF0.6800440936927408
aF0.6800438338366817
aF0.6800435771351279
aF0.6800433228583557
aF0.6800430689097448
aF0.6800428153541057
aF0.6800425638412516
aF0.6800423146363855
aF0.6800420664181042
aF0.6800418185990231
aF0.6800415720440848
aF0.6800413273967957
aF0.6800410840754498
aF0.6800408413486515
aF0.680040599429077
aF0.6800403589148207
aF0.6800401197632103
aF0.6800398814281684
aF0.6800396437262695
aF0.6800394069862085
aF0.6800391714120272
aF0.6800389367599268
aF0.680038702735471
aF0.6800384693869621
aF0.6800382369174198
aF0.6800380053155048
aF0.6800377743666164
aF0.6800375439531108
aF0.6800373141560068
aF0.680037085056561
aF0.6800368565769095
aF0.6800366285769326
aF0.6800364010140301
aF0.6800361739407252
aF0.6800359473683646
aF0.6800357212192759
aF0.6800354954041955
aF0.6800352699047423
aF0.6800350447422043
aF0.6800348198969102
as.